******************************************************************************
               TMS320C6x Linker Unix v7.4.4                    
******************************************************************************
>> Linked Wed Feb 24 15:59:16 2016

OUTPUT FILE NAME:   <bin/release/server_dsp.xe674>
ENTRY POINT SYMBOL: "ti_sysbios_family_c64p_Hwi0"  address: c303d400


MEMORY CONFIGURATION

         name            origin    length      used     unused   attr    fill
----------------------  --------  ---------  --------  --------  ----  --------
  IROM                  11700000   00100000  00000000  00100000  R  X
  IRAM                  11800000   00038000  00000000  00038000  RW X
  L3_CBA_RAM            80000000   00020000  00000000  00020000  RW X
  SR_0                  c2000000   00010000  00010000  00000000  RW X
  SR_1                  c2010000   00ff0000  00ff0000  00000000  RW X
  DSP_PROG              c3000000   00800000  0003d72f  007c28d1  RW X


SEGMENT ALLOCATION MAP

run origin  load origin   length   init length attrs members
----------  ----------- ---------- ----------- ----- -------
c3000000    c3000000    000282c0   000282c0    r-x
  c3000000    c3000000    000282c0   000282c0    r-x .text
c30282c0    c30282c0    0000d3b8   00000000    rw-
  c30282c0    c30282c0    0000d3b8   00000000    rw- .far
c3035678    c3035678    000054b0   000054b0    r--
  c3035678    c3035678    000054b0   000054b0    r-- .const
c303ab28    c303ab28    0000163b   0000163b    rw-
  c303ab28    c303ab28    0000163b   0000163b    rw- .fardata
c303c168    c303c168    00001000   00000000    rw-
  c303c168    c303c168    00001000   00000000    rw- .stack
c303d168    c303d168    00000180   00000180    r--
  c303d168    c303d168    00000180   00000180    r-- .switch
c303d2e8    c303d2e8    00000078   00000064    rw-
  c303d2e8    c303d2e8    00000064   00000064    rw- .args
  c303d34c    c303d34c    00000014   00000000    rw- .bss
c303d360    c303d360    00000028   00000028    rw-
  c303d360    c303d360    00000028   00000028    rw- .neardata
c303d400    c303d400    00000200   00000200    r-x
  c303d400    c303d400    00000200   00000200    r-x .vecs
c303d600    c303d600    00000120   00000000    rw-
  c303d600    c303d600    00000120   00000000    rw- .cio
c303d800    c303d800    0000008c   0000008c    r--
  c303d800    c303d800    0000008c   0000008c    r-- ti_sdo_ipc_init


SECTION ALLOCATION MAP

 output                                  attributes/
section   page    origin      length       input sections
--------  ----  ----------  ----------   ----------------
.cinit     0    c3000000    00000000     UNINITIALIZED

.init_array 
*          0    c3000000    00000000     UNINITIALIZED

ti.sdo.ipc.SharedRegion_0 
*          0    c2000000    00010000     NOLOAD SECTION
                  c2000000    00010000     --HOLE--

ti.sdo.ipc.SharedRegion_1 
*          0    c2010000    00ff0000     NOLOAD SECTION
                  c2010000    00ff0000     --HOLE--

xdc.meta   0    c3000000    00000100     COPY SECTION
                  c3000000    00000100     dsp_pe674.oe674 (xdc.meta)

.text      0    c3000000    000282c0     
                  c3000000    00002360     IPCServer.oe674 (.text)
                  c3002360    00001900     fa.oe674 (.text)
                  c3003c60    00000d00     fft.oe674 (.text)
                  c3004960    00000c40     utils.lib : uartStdio.obj (.text)
                  c30055a0    00000b40     ipc.ae674 : Ipc.obj (.text:ti_sdo_ipc_GateMP_Instance_init__F)
                  c30060e0    00000ae0     drivers.lib : emifa.obj (.text)
                  c3006bc0    00000980     communicate.oe674 (.text)
                  c3007540    000008a0     sysbios.ae674 : BIOS.obj (.text:ti_sysbios_family_c64p_Exception_handler__I)
                  c3007de0    000008a0     ti.targets.rts6000.ae674 : System.oe674 (.text:xdc_runtime_System_doPrint__I)
                  c3008680    000007c0     ipc.ae674 : Ipc.obj (.text:Ipc_attach)
                  c3008e40    00000700               : Ipc.obj (.text:Ipc_detach)
                  c3009540    00000700               : Ipc.obj (.text:ti_sdo_ipc_transports_TransportShm_Instance_init__F)
                  c3009c40    000006c0     sht11.oe674 (.text)
                  c300a300    00000620     sysbios.ae674 : BIOS.obj (.text:ti_sysbios_timers_timer64_Timer_Instance_init__F)
                  c300a920    000005a0     rts6740_elf.lib : divd.obj (.text:__c6xabi_divd)
                  c300aec0    000005a0     ad7606.oe674 (.text)
                  c300b460    000005a0     dsp.oe674 (.text)
                  c300ba00    00000560     ipc.ae674 : Ipc.obj (.text:ti_sdo_ipc_heaps_HeapBufMP_Instance_init__F)
                  c300bf60    000004e0     led.oe674 (.text)
                  c300c440    000004e0     ipc.ae674 : Ipc.obj (.text:ti_sdo_ipc_heaps_HeapMemMP_Instance_init__F)
                  c300c920    000004c0               : Ipc.obj (.text:ti_sdo_ipc_ListMP_Instance_init__F)
                  c300cde0    00000460               : Ipc.obj (.text:ti_sdo_ipc_GateMP_setRegion0Reserved__F)
                  c300d240    00000460               : Ipc.obj (.text:ti_sdo_ipc_MessageQ_Instance_init__F)
                  c300d6a0    00000460               : Ipc.obj (.text:ti_sdo_ipc_nsremote_NameServerRemoteNotify_get__F)
                  c300db00    00000420               : Ipc.obj (.text:ti_sdo_ipc_GateMP_Instance_finalize__F)
                  c300df20    00000400     sys.oe674 (.text)
                  c300e320    000003c0     ipc.ae674 : Ipc.obj (.text:ti_sdo_ipc_heaps_HeapMemMP_alloc__E)
                  c300e6e0    000003c0               : Ipc.obj (.text:ti_sdo_ipc_heaps_HeapMemMP_free__E)
                  c300eaa0    000003a0               : Ipc.obj (.text:NameServer_add)
                  c300ee40    000003a0     dsplib.ae674 : DSPF_sp_fftSPxSP.obj (.text:optimized)
                  c300f1e0    00000380     ti.targets.rts6000.ae674 : Diags.oe674 (.text:xdc_runtime_Diags_setMask__F)
                  c300f560    00000340     drivers.lib : uart.obj (.text)
                  c300f8a0    00000300     ipc.ae674 : Ipc.obj (.text:Ipc_writeConfig)
                  c300fba0    00000300               : Ipc.obj (.text:ti_sdo_ipc_heaps_HeapBufMP_postInit__I)
                  c300fea0    00000300     sysbios.ae674 : BIOS.obj (.text:ti_sysbios_knl_Semaphore_pend__E)
                  c30101a0    00000300                   : BIOS.obj (.text:ti_sysbios_knl_Task_Instance_finalize__F)
                  c30104a0    000002e0     ipc.ae674 : Ipc.obj (.text:ListMP_getHead)
                  c3010780    000002e0     collect.oe674 (.text)
                  c3010a60    000002e0     ipc.ae674 : Ipc.obj (.text:ti_sdo_ipc_Ipc_procSyncStart__I)
                  c3010d40    000002e0               : Ipc.obj (.text:ti_sdo_ipc_nsremote_NameServerRemoteNotify_Instance_init__F)
                  c3011020    000002c0               : Ipc.obj (.text:NameServer_get)
                  c30112e0    000002c0     drivers.lib : gpio.obj (.text)
                  c30115a0    000002c0     sysbios.ae674 : BIOS.obj (.text:ti_sysbios_timers_timer64_Timer_Module_startup__F)
                  c3011860    000002a0     ipc.ae674 : Ipc.obj (.text:ti_sdo_ipc_transports_TransportShm_Instance_finalize__F)
                  c3011b00    000002a0     sysbios.ae674 : BIOS.obj (.text:ti_sysbios_timers_timer64_Timer_deviceConfig__I)
                  c3011da0    00000280     ipc.ae674 : Ipc.obj (.text:ListMP_putTail)
                  c3012020    00000280               : Ipc.obj (.text:ListMP_remove)
                  c30122a0    00000280     rts6740_elf.lib : divf.obj (.text:__c6xabi_divf)
                  c3012520    00000280     ipc.ae674 : Ipc.obj (.text:ti_sdo_ipc_gates_GatePeterson_Instance_init__F)
                  c30127a0    00000280     ti.targets.rts6000.ae674 : Error.oe674 (.text:xdc_runtime_Error_raiseX__F)
                  c3012a20    00000260     ipc.ae674 : Ipc.obj (.text:GateMP_openByAddr)
                  c3012c80    00000260               : Ipc.obj (.text:Ipc_start)
                  c3012ee0    00000260     rts6740_elf.lib : imath64.obj (.text:__c6xabi_divull)
                  c3013140    00000260     sysbios.ae674 : BIOS.obj (.text:ti_sysbios_family_c64p_Exception_internalHandler__I)
                  c30133a0    00000260                   : BIOS.obj (.text:ti_sysbios_timers_timer64_Timer_setPeriodMicroSecs__E)
                  c3013600    00000260     ti.targets.rts6000.ae674 : Startup.oe674 (.text:xdc_runtime_Startup_startMods__I)
                  c3013860    00000260     dsp_pe674.oe674 (.text:xdc_runtime_System_printfExtend__I)
                  c3013ac0    00000240     ipc.ae674 : Ipc.obj (.text:Notify_unregisterEvent)
                  c3013d00    00000240               : Ipc.obj (.text:ti_sdo_ipc_family_da830_NotifySetup_attach__E)
                  c3013f40    00000240               : Ipc.obj (.text:ti_sdo_ipc_heaps_HeapMemMP_getStats__E)
                  c3014180    00000240     ti.targets.rts6000.ae674 : LoggerBuf.oe674 (.text:xdc_runtime_LoggerBuf_write8__F)
                  c30143c0    00000220     ipc.ae674 : Ipc.obj (.text:ti_sdo_ipc_nsremote_NameServerRemoteNotify_swiFxn__I)
                  c30145e0    00000220     sysbios.ae674 : BIOS.obj (.text:ti_sysbios_family_c64p_Hwi_reconfig__E)
                  c3014800    00000220                   : BIOS.obj (.text:ti_sysbios_gates_GateMutexPri_enter__E)
                  c3014a20    00000220     ti.targets.rts6000.ae674 : Core-mem.oe674 (.text:xdc_runtime_Core_createObject__I)
                  c3014c40    00000200     sysbios.ae674 : c64p_Hwi_disp_always.obj (.text:_ti_sysbios_family_c64p_Hwi_dispatchAlways)
                  c3014e40    00000200     ipc.ae674 : Ipc.obj (.text:ti_sdo_ipc_Ipc_procSyncFinish__I)
                  c3015040    00000200               : Ipc.obj (.text:ti_sdo_ipc_heaps_HeapBufMP_alloc__E)
                  c3015240    00000200               : Ipc.obj (.text:ti_sdo_ipc_notifyDrivers_NotifyDriverShm_Instance_init__F)
                  c3015440    00000200               : Ipc.obj (.text:ti_sdo_ipc_notifyDrivers_NotifyDriverShm_sendEvent__E)
                  c3015640    000001e0               : Ipc.obj (.text:GateMP_sharedMemReq)
                  c3015820    000001e0               : Ipc.obj (.text:ListMP_openByAddr)
                  c3015a00    000001e0     Platform.lib : GPIO.obj (.text)
                  c3015be0    000001e0     sysbios.ae674 : BIOS.obj (.text:ti_sysbios_family_c64p_Exception_externalHandler__I)
                  c3015dc0    000001e0                   : BIOS.obj (.text:ti_sysbios_knl_Task_Instance_init__F)
                  c3015fa0    000001e0                   : BIOS.obj (.text:ti_sysbios_knl_Task_checkStacks__E)
                  c3016180    000001c0     mathlib.ae674 : atan2sp.obj (.text:optasm)
                  c3016340    000001c0     ipc.ae674 : Ipc.obj (.text:ti_sdo_ipc_GateMP_getFreeResource__I)
                  c3016500    000001c0               : Ipc.obj (.text:ti_sdo_ipc_heaps_HeapMemMP_postInit__I)
                  c30166c0    000001c0     sysbios.ae674 : BIOS.obj (.text:ti_sysbios_family_c64p_Cache_block__I)
                  c3016880    000001c0                   : BIOS.obj (.text:ti_sysbios_family_c64p_Exception_decodeMpfsr__I)
                  c3016a40    000001c0                   : BIOS.obj (.text:ti_sysbios_knl_Task_exit__E)
                  c3016c00    000001c0                   : BIOS.obj (.text:ti_sysbios_knl_Task_postInit__I)
                  c3016dc0    000001c0     ti.targets.rts6000.ae674 : Text.oe674 (.text:xdc_runtime_Text_putSite__F)
                  c3016f80    000001a0     ipc.ae674 : Ipc.obj (.text:ti_sdo_ipc_notifyDrivers_NotifyDriverShm_registerEvent__E)
                  c3017120    000001a0               : Ipc.obj (.text:ti_sdo_ipc_notifyDrivers_NotifyDriverShm_unregisterEvent__E)
                  c30172c0    000001a0     sysbios.ae674 : BIOS.obj (.text:ti_sysbios_timers_timer64_Timer_start__E)
                  c3017460    000001a0     ti.targets.rts6000.ae674 : LoggerBuf.oe674 (.text:xdc_runtime_LoggerBuf_write4__F)
                  c3017600    00000180     ipc.ae674 : Ipc.obj (.text:HeapBufMP_sharedMemReq)
                  c3017780    00000180               : Ipc.obj (.text:NameServer_getHandle)
                  c3017900    00000180     Platform.lib : UART.obj (.text)
                  c3017a80    00000180     drivers.lib : psc.obj (.text)
                  c3017c00    00000180     sysbios.ae674 : c64p_Exception_asm.obj (.text)
                  c3017d80    00000180     ipc.ae674 : Ipc.obj (.text:ti_sdo_ipc_gates_GatePeterson_enter__E)
                  c3017f00    00000180               : Ipc.obj (.text:ti_sdo_ipc_heaps_HeapBufMP_Instance_finalize__F)
                  c3018080    00000180               : Ipc.obj (.text:ti_sdo_ipc_notifyDrivers_NotifyDriverShm_isr__I)
                  c3018200    00000180     sysbios.ae674 : BIOS.obj (.text:ti_sysbios_heaps_HeapMem_alloc__E)
                  c3018380    00000180                   : BIOS.obj (.text:ti_sysbios_knl_Swi_schedule__I)
                  c3018500    00000180                   : BIOS.obj (.text:ti_sysbios_knl_Task_setPri__E)
                  c3018680    00000160     ipc.ae674 : Ipc.obj (.text:ti_sdo_ipc_GateMP_openRegion0Reserved__F)
                  c30187e0    00000160               : Ipc.obj (.text:ti_sdo_ipc_ListMP_Instance_finalize__F)
                  c3018940    00000160               : Ipc.obj (.text:ti_sdo_ipc_Notify_Instance_init__F)
                  c3018aa0    00000160               : Ipc.obj (.text:ti_sdo_ipc_heaps_HeapMemMP_Instance_finalize__F)
                  c3018c00    00000160               : Ipc.obj (.text:ti_sdo_utils_NameServer_removeLocal__I)
                  c3018d60    00000160     sysbios.ae674 : BIOS.obj (.text:ti_sysbios_knl_Task_schedule__I)
                  c3018ec0    00000160                   : BIOS.obj (.text:ti_sysbios_knl_Task_startCore__E)
                  c3019020    00000140     ipc.ae674 : Ipc.obj (.text:HeapBufMP_openByAddr)
                  c3019160    00000140               : Ipc.obj (.text:HeapMemMP_openByAddr)
                  c30192a0    00000140               : Ipc.obj (.text:MessageQ_put)
                  c30193e0    00000140               : Ipc.obj (.text:Notify_registerEvent)
                  c3019520    00000140     boot.ae674 : autoinit.oe674 (.text:_auto_init_elf)
                  c3019660    00000140     ipc.ae674 : Ipc.obj (.text:ti_sdo_ipc_SharedRegion_start__F)
                  c30197a0    00000140               : Ipc.obj (.text:ti_sdo_ipc_notifyDrivers_NotifyDriverShm_disableEvent__E)
                  c30198e0    00000140               : Ipc.obj (.text:ti_sdo_ipc_transports_TransportShm_openByAddr__F)
                  c3019a20    00000140               : Ipc.obj (.text:ti_sdo_ipc_transports_TransportShm_put__E)
                  c3019b60    00000140     sysbios.ae674 : BIOS.obj (.text:ti_sysbios_heaps_HeapMem_free__E)
                  c3019ca0    00000140                   : BIOS.obj (.text:ti_sysbios_knl_Task_Module_startup__F)
                  c3019de0    00000140                   : BIOS.obj (.text:ti_sysbios_knl_Task_sleep__E)
                  c3019f20    00000140     ti.targets.rts6000.ae674 : Text.oe674 (.text:xdc_runtime_Text_putLab__F)
                  c301a060    00000120     ipc.ae674 : Ipc.obj (.text:HeapMemMP_sharedMemReq)
                  c301a180    00000120     mathlib.ae674 : cossp.obj (.text:optasm)
                  c301a2a0    00000120                   : sinsp.obj (.text:optasm)
                  c301a3c0    00000120     ipc.ae674 : Ipc.obj (.text:ti_sdo_ipc_MessageQ_Module_startup__F)
                  c301a4e0    00000120               : Ipc.obj (.text:ti_sdo_ipc_transports_TransportShm_sharedMemReq__F)
                  c301a600    00000120     sysbios.ae674 : BIOS.obj (.text:ti_sysbios_family_c64p_Exception_Module_startup__F)
                  c301a720    00000120                   : BIOS.obj (.text:ti_sysbios_knl_Clock_workFunc__E)
                  c301a840    00000120     ti.targets.rts6000.ae674 : LoggerBuf.oe674 (.text:xdc_runtime_LoggerBuf_setFilterLevel__F)
                  c301a960    00000120                              : Text.oe674 (.text:xdc_runtime_Text_putMod__F)
                  c301aa80    00000100     EMIFAPinmuxSetup.oe674 (.text)
                  c301ab80    00000100     ipc.ae674 : Ipc.obj (.text:HeapBufMP_open)
                  c301ac80    00000100               : Ipc.obj (.text:ListMP_sharedMemReq)
                  c301ad80    00000100               : Ipc.obj (.text:Notify_registerEventSingle)
                  c301ae80    00000100               : Ipc.obj (.text:Notify_sendEvent)
                  c301af80    00000100               : Ipc.obj (.text:Notify_unregisterEventSingle)
                  c301b080    00000100               : Ipc.obj (.text:ti_sdo_ipc_GateMP_start__F)
                  c301b180    00000100               : Ipc.obj (.text:ti_sdo_ipc_MessageQ_Instance_finalize__F)
                  c301b280    00000100     dsp_pe674.oe674 (.text:ti_sdo_ipc_MessageQ_Object__create__S)
                  c301b380    00000100     ipc.ae674 : Ipc.obj (.text:ti_sdo_ipc_Notify_Instance_finalize__F)
                  c301b480    00000100     dsp_pe674.oe674 (.text:ti_sdo_ipc_Notify_Object__create__S)
                  c301b580    00000100     ipc.ae674 : Ipc.obj (.text:ti_sdo_ipc_SharedRegion_attach__F)
                  c301b680    00000100               : Ipc.obj (.text:ti_sdo_ipc_SharedRegion_clearReservedMemory__F)
                  c301b780    00000100     dsp_pe674.oe674 (.text:ti_sdo_ipc_gates_GatePeterson_Object__create__S)
                  c301b880    00000100     ipc.ae674 : Ipc.obj (.text:ti_sdo_ipc_nsremote_NameServerRemoteNotify_Instance_finalize__F)
                  c301b980    00000100     dsp_pe674.oe674 (.text:ti_sdo_ipc_nsremote_NameServerRemoteNotify_Object__create__S)
                  c301ba80    00000100     ipc.ae674 : Ipc.obj (.text:ti_sdo_ipc_transports_TransportShmSetup_attach__E)
                  c301bb80    00000100     dsp_pe674.oe674 (.text:ti_sdo_ipc_transports_TransportShm_Object__create__S)
                  c301bc80    00000100     ipc.ae674 : Ipc.obj (.text:ti_sdo_utils_NameServer_findLocal__I)
                  c301bd80    00000100     sysbios.ae674 : BIOS.obj (.text:ti_sysbios_family_c64p_Hwi_Module_startup__F)
                  c301be80    00000100     dsp_pe674.oe674 (.text:ti_sysbios_family_c64p_Hwi_Object__create__S)
                  c301bf80    00000100     sysbios.ae674 : BIOS.obj (.text:ti_sysbios_family_c64p_Hwi_dispatchC__I)
                  c301c080    00000100                   : BIOS.obj (.text:ti_sysbios_gates_GateMutexPri_leave__E)
                  c301c180    00000100     dsp_pe674.oe674 (.text:ti_sysbios_hal_Hwi_Object__create__S)
                  c301c280    00000100     sysbios.ae674 : BIOS.obj (.text:ti_sysbios_knl_Clock_startI__E)
                  c301c380    00000100                   : BIOS.obj (.text:ti_sysbios_knl_Semaphore_post__E)
                  c301c480    00000100     dsp_pe674.oe674 (.text:ti_sysbios_knl_Swi_Object__create__S)
                  c301c580    00000100     sysbios.ae674 : BIOS.obj (.text:ti_sysbios_knl_Swi_restoreHwi__E)
                  c301c680    00000100     dsp_pe674.oe674 (.text:ti_sysbios_knl_Task_Object__create__S)
                  c301c780    00000100     dsp_pe674.oe674 (.text:ti_sysbios_timers_timer64_Timer_Object__create__S)
                  c301c880    00000100     sysbios.ae674 : BIOS.obj (.text:ti_sysbios_timers_timer64_Timer_initDevice__I)
                  c301c980    00000100     ti.targets.rts6000.ae674 : Core-mem.oe674 (.text:xdc_runtime_Core_deleteObject__I)
                  c301ca80    00000100                              : LoggerBuf.oe674 (.text:xdc_runtime_LoggerBuf_getFilterLevel__F)
                  c301cb80    00000100                              : Startup.oe674 (.text:xdc_runtime_Startup_exec__F)
                  c301cc80    00000100                              : Text.oe674 (.text:xdc_runtime_Text_visitRope2__I)
                  c301cd80    000000e0     ipc.ae674 : Ipc.obj (.text:MessageQ_get)
                  c301ce60    000000e0               : Ipc.obj (.text:NameServer_getLocal)
                  c301cf40    000000e0     Platform.lib : UARTConsole.obj (.text)
                  c301d020    000000e0     rts6740_elf.lib : memset.obj (.text:memset)
                  c301d100    000000e0     dsp_pe674.oe674 (.text:ti_sdo_ipc_GateMP_Object__create__S)
                  c301d1e0    000000e0     ipc.ae674 : Ipc.obj (.text:ti_sdo_ipc_Ipc_getMasterAddr__I)
                  c301d2c0    000000e0               : Ipc.obj (.text:ti_sdo_ipc_Ipc_getSlaveAddr__I)
                  c301d3a0    000000e0     dsp_pe674.oe674 (.text:ti_sdo_ipc_ListMP_Object__create__S)
                  c301d480    000000e0     ipc.ae674 : Ipc.obj (.text:ti_sdo_ipc_MessageQ_grow__I)
                  c301d560    000000e0               : Ipc.obj (.text:ti_sdo_ipc_Notify_detach__F)
                  c301d640    000000e0               : Ipc.obj (.text:ti_sdo_ipc_SharedRegion_reserveMemory__F)
                  c301d720    000000e0               : Ipc.obj (.text:ti_sdo_ipc_SharedRegion_stop__F)
                  c301d800    000000e0               : Ipc.obj (.text:ti_sdo_ipc_gates_GatePeterson_sharedMemReq__E)
                  c301d8e0    000000e0     dsp_pe674.oe674 (.text:ti_sdo_ipc_heaps_HeapBufMP_Object__create__S)
                  c301d9c0    000000e0     ipc.ae674 : Ipc.obj (.text:ti_sdo_ipc_heaps_HeapBufMP_free__E)
                  c301daa0    000000e0               : Ipc.obj (.text:ti_sdo_ipc_heaps_HeapBufMP_getStats__F)
                  c301db80    000000e0     dsp_pe674.oe674 (.text:ti_sdo_ipc_heaps_HeapMemMP_Object__create__S)
                  c301dc60    000000e0     dsp_pe674.oe674 (.text:ti_sdo_ipc_notifyDrivers_NotifyDriverShm_Object__create__S)
                  c301dd40    000000e0     ipc.ae674 : Ipc.obj (.text:ti_sdo_utils_NameServer_Module_startup__F)
                  c301de20    000000e0     sysbios.ae674 : BIOS.obj (.text:ti_sysbios_family_c64p_Cache_Module_startup__F)
                  c301df00    000000e0                   : BIOS.obj (.text:ti_sysbios_family_c64p_Hwi_Instance_finalize__F)
                  c301dfe0    000000e0                   : BIOS.obj (.text:ti_sysbios_family_c64p_Hwi_Instance_init__F)
                  c301e0c0    000000e0                   : BIOS.obj (.text:ti_sysbios_knl_Task_unblockI__E)
                  c301e1a0    000000e0     dsp_pe674.oe674 (.text:ti_sysbios_syncs_SyncSem_Object__create__S)
                  c301e280    000000e0     ti.targets.rts6000.ae674 : Error.oe674 (.text:xdc_runtime_Error_print__F)
                  c301e360    000000e0     dsp_pe674.oe674 (.text:xdc_runtime_LoggerBuf_Object__create__S)
                  c301e440    000000e0     ti.targets.rts6000.ae674 : Memory.oe674 (.text:xdc_runtime_Memory_alloc__F)
                  c301e520    000000e0     dsp_pe674.oe674 (.text:xdc_runtime_Registry_addModule__E)
                  c301e600    000000e0     dsp_pe674.oe674 (.text:xdc_runtime_Registry_findByNamePattern__E)
                  c301e6e0    000000e0     dsp_pe674.oe674 (.text:xdc_runtime_knl_GateThread_Object__create__S)
                  c301e7c0    000000c0     rts6740_elf.lib : trgdrv.obj (.text:HOSTwrite)
                  c301e880    000000c0     ipc.ae674 : Ipc.obj (.text:HeapMemMP_create)
                  c301e940    000000c0               : Ipc.obj (.text:Ipc_stop)
                  c301ea00    000000c0               : Ipc.obj (.text:ListMP_create)
                  c301eac0    000000c0               : Ipc.obj (.text:MessageQ_create2)
                  c301eb80    000000c0               : Ipc.obj (.text:MultiProc_getId)
                  c301ec40    000000c0               : Ipc.obj (.text:SharedRegion_getId)
                  c301ed00    000000c0     rts6740_elf.lib : dtor_list.obj (.text:_Z11__TI_atexitPFYvPvES_S_)
                  c301edc0    000000c0                     : dtor_list.obj (.text:__cxa_finalize)
                  c301ee80    000000c0                     : divu.obj (.text:__divu)
                  c301ef40    000000c0                     : exit.obj (.text:exit)
                  c301f000    000000c0     ipc.ae674 : Ipc.obj (.text:ti_sdo_ipc_GateMP_attach__F)
                  c301f0c0    000000c0               : Ipc.obj (.text:ti_sdo_ipc_ListMP_elemClear__I)
                  c301f180    000000c0               : Ipc.obj (.text:ti_sdo_ipc_Notify_execMany__I)
                  c301f240    000000c0               : Ipc.obj (.text:ti_sdo_ipc_SharedRegion_detach__F)
                  c301f300    000000c0               : Ipc.obj (.text:ti_sdo_ipc_family_da830_InterruptDsp_intRegister__E)
                  c301f3c0    000000c0               : Ipc.obj (.text:ti_sdo_ipc_gates_GatePeterson_postInit__I)
                  c301f480    000000c0               : Ipc.obj (.text:ti_sdo_ipc_nsremote_NameServerRemoteNotify_attach__E)
                  c301f540    000000c0               : Ipc.obj (.text:ti_sdo_utils_NameServer_postInit__I)
                  c301f600    000000c0     sysbios.ae674 : BIOS.obj (.text:ti_sysbios_heaps_HeapMem_getStats__E)
                  c301f6c0    000000c0                   : BIOS.obj (.text:ti_sysbios_knl_Swi_Instance_init__F)
                  c301f780    000000c0                   : BIOS.obj (.text:ti_sysbios_knl_Swi_run__I)
                  c301f840    000000c0                   : BIOS.obj (.text:ti_sysbios_knl_Task_allBlockedFunction__I)
                  c301f900    000000c0                   : BIOS.obj (.text:ti_sysbios_syncs_SyncSem_Instance_init__F)
                  c301f9c0    000000c0                   : BIOS.obj (.text:ti_sysbios_timers_timer64_Timer_startup__E)
                  c301fa80    000000c0     ti.targets.rts6000.ae674 : LoggerBuf.oe674 (.text:xdc_runtime_LoggerBuf_Instance_init__F)
                  c301fb40    000000c0     dsp_pe674.oe674 (.text:xdc_runtime_Registry_findById__E)
                  c301fc00    000000c0     ti.targets.rts6000.ae674 : System.oe674 (.text:xdc_runtime_System_formatNum__I)
                  c301fcc0    000000c0                              : Text.oe674 (.text:xdc_runtime_Text_matchVisFxn__I)
                  c301fd80    000000a0     ipc.ae674 : Ipc.obj (.text:SharedRegion_getPtr)
                  c301fe20    000000a0               : Ipc.obj (.text:SharedRegion_getSRPtr)
                  c301fec0    000000a0     rts6740_elf.lib : remu.obj (.text:__remu)
                  c301ff60    000000a0     boot.ae674 : boot.oe674 (.text:_c_int00)
                  c3020000    000000a0     sysbios.ae674 : c64p_Hwi_asm.obj (.text:_ti_sysbios_family_c64p_Hwi_plug__E)
                  c30200a0    000000a0     rts6740_elf.lib : memcpy64.obj (.text:memcpy)
                  c3020140    000000a0     mathlib.ae674 : sqrtsp.obj (.text:optasm)
                  c30201e0    000000a0     ipc.ae674 : Ipc.obj (.text:ti_sdo_ipc_GateMP_detach__F)
                  c3020280    000000a0               : Ipc.obj (.text:ti_sdo_ipc_GateMP_getRegion0ReservedSize__F)
                  c3020320    000000a0               : Ipc.obj (.text:ti_sdo_ipc_GateMP_stop__F)
                  c30203c0    000000a0               : Ipc.obj (.text:ti_sdo_ipc_gates_GatePeterson_leave__E)
                  c3020460    000000a0               : Ipc.obj (.text:ti_sdo_ipc_notifyDrivers_NotifyDriverShm_Instance_finalize__F)
                  c3020500    000000a0               : Ipc.obj (.text:ti_sdo_ipc_transports_TransportShmSetup_detach__E)
                  c30205a0    000000a0     sysbios.ae674 : BIOS.obj (.text:ti_sysbios_family_c64p_Hwi_eventMap__E)
                  c3020640    000000a0                   : BIOS.obj (.text:ti_sysbios_family_c64p_Hwi_getStackInfo__E)
                  c30206e0    000000a0                   : BIOS.obj (.text:ti_sysbios_gates_GateMutex_enter__E)
                  c3020780    000000a0                   : BIOS.obj (.text:ti_sysbios_heaps_HeapMem_init__I)
                  c3020820    000000a0                   : BIOS.obj (.text:ti_sysbios_knl_Clock_Instance_init__F)
                  c30208c0    000000a0     dsp_pe674.oe674 (.text:ti_sysbios_knl_Clock_Object__create__S)
                  c3020960    000000a0     sysbios.ae674 : BIOS.obj (.text:ti_sysbios_knl_Idle_run__E)
                  c3020a00    000000a0                   : BIOS.obj (.text:ti_sysbios_knl_Semaphore_pendTimeout__I)
                  c3020aa0    000000a0                   : BIOS.obj (.text:ti_sysbios_knl_Swi_restore__E)
                  c3020b40    000000a0                   : BIOS.obj (.text:ti_sysbios_syncs_SyncSem_wait__F)
                  c3020be0    000000a0                   : BIOS.obj (.text:ti_sysbios_timers_timer64_Timer_Instance_finalize__F)
                  c3020c80    000000a0                   : BIOS.obj (.text:ti_sysbios_timers_timer64_Timer_stop__E)
                  c3020d20    000000a0     ti.targets.rts6000.ae674 : Assert.oe674 (.text:xdc_runtime_Assert_raise__I)
                  c3020dc0    000000a0                              : LoggerBuf.oe674 (.text:xdc_runtime_LoggerBuf_Module_startup__F)
                  c3020e60    000000a0                              : Registry.oe674 (.text:xdc_runtime_Registry_addModule__F)
                  c3020f00    000000a0                              : Registry.oe674 (.text:xdc_runtime_Registry_findByName__F)
                  c3020fa0    000000a0                              : SysMin.oe674 (.text:xdc_runtime_SysMin_abort__F)
                  c3021040    000000a0                              : SysMin.oe674 (.text:xdc_runtime_SysMin_flush__F)
                  c30210e0    000000a0                              : SysMin.oe674 (.text:xdc_runtime_SysMin_putch__F)
                  c3021180    000000a0                              : Text.oe674 (.text:xdc_runtime_Text_xprintf__I)
                  c3021220    00000080     ipc.ae674 : Ipc.obj (.text:GateMP_close)
                  c30212a0    00000080               : Ipc.obj (.text:HeapBufMP_Params_init)
                  c3021320    00000080               : Ipc.obj (.text:HeapMemMP_restore)
                  c30213a0    00000080               : Ipc.obj (.text:MessageQ_alloc)
                  c3021420    00000080               : Ipc.obj (.text:MessageQ_free)
                  c30214a0    00000080     rts6740_elf.lib : fixfu.obj (.text:__c6xabi_fixfu)
                  c3021520    00000080                     : llshift.obj (.text:__c6xabi_llshl)
                  c30215a0    00000080     sysbios.ae674 : c62_TaskSupport_asm.obj (.text:_ti_sysbios_family_c62_TaskSupport_swap__E)
                  c3021620    00000080     dsp_pe674.oe674 (.text:malloc)
                  c30216a0    00000080     rts6740_elf.lib : trgmsg.obj (.text:readmsg)
                  c3021720    00000080     ipc.ae674 : Ipc.obj (.text:ti_sdo_ipc_Notify_Module_startup__F)
                  c30217a0    00000080               : Ipc.obj (.text:ti_sdo_ipc_family_da830_NotifySetup_sharedMemReq__E)
                  c3021820    00000080     dsp_pe674.oe674 (.text:ti_sdo_ipc_gates_GateMPSupportNull_Object__create__S)
                  c30218a0    00000080     ipc.ae674 : Ipc.obj (.text:ti_sdo_ipc_notifyDrivers_NotifyDriverShm_sharedMemReq__F)
                  c3021920    00000080               : Ipc.obj (.text:ti_sdo_ipc_nsremote_NameServerRemoteNotify_detach__E)
                  c30219a0    00000080               : Ipc.obj (.text:ti_sdo_ipc_transports_TransportShm_swiFxn__I)
                  c3021a20    00000080     dsp_pe674.oe674 (.text:ti_sdo_utils_List_Object__create__S)
                  c3021aa0    00000080     sysbios.ae674 : BIOS.obj (.text:ti_sysbios_BIOS_errorRaiseHook__I)
                  c3021b20    00000080     dsp_pe674.oe674 (.text:ti_sysbios_BIOS_exitFunc__I)
                  c3021ba0    00000080     dsp_pe674.oe674 (.text:ti_sysbios_gates_GateAll_Object__create__S)
                  c3021c20    00000080     dsp_pe674.oe674 (.text:ti_sysbios_gates_GateHwi_Object__create__S)
                  c3021ca0    00000080     dsp_pe674.oe674 (.text:ti_sysbios_gates_GateMutexPri_Object__create__S)
                  c3021d20    00000080     dsp_pe674.oe674 (.text:ti_sysbios_gates_GateMutex_Object__create__S)
                  c3021da0    00000080     dsp_pe674.oe674 (.text:ti_sysbios_gates_GateSwi_Object__create__S)
                  c3021e20    00000080     sysbios.ae674 : BIOS.obj (.text:ti_sysbios_hal_Hwi_checkStack:ti_sysbios_hal_Hwi_checkStack)
                  c3021ea0    00000080                   : BIOS.obj (.text:ti_sysbios_hal_Hwi_initStack:ti_sysbios_hal_Hwi_initStack)
                  c3021f20    00000080                   : BIOS.obj (.text:ti_sysbios_heaps_HeapMem_Instance_init__F)
                  c3021fa0    00000080     dsp_pe674.oe674 (.text:ti_sysbios_heaps_HeapMem_Object__create__S)
                  c3022020    00000080     sysbios.ae674 : BIOS.obj (.text:ti_sysbios_knl_Clock_Module_startup__F)
                  c30220a0    00000080     dsp_pe674.oe674 (.text:ti_sysbios_knl_Clock_doTick__I)
                  c3022120    00000080     sysbios.ae674 : BIOS.obj (.text:ti_sysbios_knl_Clock_getTicks__E)
                  c30221a0    00000080     dsp_pe674.oe674 (.text:ti_sysbios_knl_Queue_Object__create__S)
                  c3022220    00000080     dsp_pe674.oe674 (.text:ti_sysbios_knl_Semaphore_Object__create__S)
                  c30222a0    00000080     sysbios.ae674 : BIOS.obj (.text:ti_sysbios_knl_Swi_post__E)
                  c3022320    00000080                   : BIOS.obj (.text:ti_sysbios_knl_Task_processVitalTaskFlag__I)
                  c30223a0    00000080                   : BIOS.obj (.text:ti_sysbios_knl_Task_restoreHwi__E)
                  c3022420    00000080                   : BIOS.obj (.text:ti_sysbios_knl_Task_restore__E)
                  c30224a0    00000080                   : BIOS.obj (.text:ti_sysbios_knl_Task_yield__E)
                  c3022520    00000080                   : BIOS.obj (.text:ti_sysbios_timers_timer64_Timer_getExpiredCounts__E)
                  c30225a0    00000080                   : BIOS.obj (.text:ti_sysbios_timers_timer64_Timer_getPeriod__E)
                  c3022620    00000080     dsp_pe674.oe674 (.text:ti_sysbios_xdcruntime_GateThreadSupport_Object__create__S)
                  c30226a0    00000080     ti.targets.rts6000.ae674 : Core-label.oe674 (.text:xdc_runtime_Core_assignLabel__I)
                  c3022720    00000080                              : Core-params.oe674 (.text:xdc_runtime_Core_assignParams__I)
                  c30227a0    00000080                              : LoggerBuf.oe674 (.text:xdc_runtime_LoggerBuf_filterOutEvent__I)
                  c3022820    00000080                              : Registry.oe674 (.text:xdc_runtime_Registry_findByNamePattern__F)
                  c30228a0    00000080                              : Registry.oe674 (.text:xdc_runtime_Registry_matchPattern__I)
                  c3022920    00000080                              : System.oe674 (.text:xdc_runtime_System_atexit__F)
                  c30229a0    00000080                              : System.oe674 (.text:xdc_runtime_System_putchar__I)
                  c3022a20    00000080                              : System.oe674 (.text:xdc_runtime_System_rtsExit__I)
                  c3022aa0    00000080                              : Text.oe674 (.text:xdc_runtime_Text_printVisFxn__I)
                  c3022b20    00000060     ipc.ae674 : Ipc.obj (.text:GateMP_Params_init)
                  c3022b80    00000060               : Ipc.obj (.text:HeapMemMP_Params_init)
                  c3022be0    00000060               : Ipc.obj (.text:MessageQ_msgInit$4)
                  c3022c40    00000060               : Ipc.obj (.text:MessageQ_open)
                  c3022ca0    00000060               : Ipc.obj (.text:Notify_numIntLines)
                  c3022d00    00000060               : Ipc.obj (.text:Notify_sharedMemReq)
                  c3022d60    00000060     rts6740_elf.lib : imath64.obj (.text:_subcull)
                  c3022dc0    00000060                     : strpbrk.obj (.text:strpbrk)
                  c3022e20    00000060     dsp_pe674.oe674 (.text:ti_sdo_ipc_GateMP_Object__delete__S)
                  c3022e80    00000060     ipc.ae674 : Ipc.obj (.text:ti_sdo_ipc_GateMP_createLocal__F)
                  c3022ee0    00000060               : Ipc.obj (.text:ti_sdo_ipc_Ipc_getRegion0ReservedSize__I)
                  c3022f40    00000060     dsp_pe674.oe674 (.text:ti_sdo_ipc_ListMP_Object__delete__S)
                  c3022fa0    00000060     dsp_pe674.oe674 (.text:ti_sdo_ipc_MessageQ_Object__delete__S)
                  c3023000    00000060     dsp_pe674.oe674 (.text:ti_sdo_ipc_Notify_Object__delete__S)
                  c3023060    00000060     ipc.ae674 : Ipc.obj (.text:ti_sdo_ipc_gates_GatePeterson_Instance_finalize__F)
                  c30230c0    00000060     dsp_pe674.oe674 (.text:ti_sdo_ipc_gates_GatePeterson_Object__delete__S)
                  c3023120    00000060     dsp_pe674.oe674 (.text:ti_sdo_ipc_heaps_HeapBufMP_Object__delete__S)
                  c3023180    00000060     dsp_pe674.oe674 (.text:ti_sdo_ipc_heaps_HeapMemMP_Object__delete__S)
                  c30231e0    00000060     dsp_pe674.oe674 (.text:ti_sdo_ipc_notifyDrivers_NotifyDriverShm_Object__delete__S)
                  c3023240    00000060     ipc.ae674 : Ipc.obj (.text:ti_sdo_ipc_notifyDrivers_NotifyDriverShm_enableEvent__E)
                  c30232a0    00000060               : Ipc.obj (.text:ti_sdo_ipc_notifyDrivers_NotifyDriverShm_setNotifyHandle__E)
                  c3023300    00000060     dsp_pe674.oe674 (.text:ti_sdo_ipc_nsremote_NameServerRemoteNotify_Object__delete__S)
                  c3023360    00000060     ipc.ae674 : Ipc.obj (.text:ti_sdo_ipc_transports_TransportShmSetup_sharedMemReq__E)
                  c30233c0    00000060     dsp_pe674.oe674 (.text:ti_sdo_ipc_transports_TransportShm_Object__delete__S)
                  c3023420    00000060     sysbios.ae674 : BIOS.obj (.text:ti_sysbios_BIOS_registerRTSLock__I)
                  c3023480    00000060                   : BIOS.obj (.text:ti_sysbios_BIOS_removeRTSLock__I)
                  c30234e0    00000060                   : BIOS.obj (.text:ti_sysbios_BIOS_rtsLock__I)
                  c3023540    00000060                   : BIOS.obj (.text:ti_sysbios_family_c62_TaskSupport_start__E)
                  c30235a0    00000060                   : BIOS.obj (.text:ti_sysbios_family_c64p_Cache_all__I)
                  c3023600    00000060                   : BIOS.obj (.text:ti_sysbios_family_c64p_Cache_marInit__I)
                  c3023660    00000060                   : BIOS.obj (.text:ti_sysbios_family_c64p_Cache_setMar__E)
                  c30236c0    00000060                   : BIOS.obj (.text:ti_sysbios_family_c64p_Cache_setSize__E)
                  c3023720    00000060                   : BIOS.obj (.text:ti_sysbios_family_c64p_Cache_wait__E)
                  c3023780    00000060     dsp_pe674.oe674 (.text:ti_sysbios_family_c64p_Hwi_Object__delete__S)
                  c30237e0    00000060     sysbios.ae674 : BIOS.obj (.text:ti_sysbios_gates_GateAll_enter__E)
                  c3023840    00000060                   : BIOS.obj (.text:ti_sysbios_gates_GateAll_leave__E)
                  c30238a0    00000060     dsp_pe674.oe674 (.text:ti_sysbios_gates_GateMutexPri_Object__delete__S)
                  c3023900    00000060     sysbios.ae674 : BIOS.obj (.text:ti_sysbios_gates_GateMutex_Instance_init__F)
                  c3023960    00000060     dsp_pe674.oe674 (.text:ti_sysbios_gates_GateMutex_Object__delete__S)
                  c30239c0    00000060     sysbios.ae674 : BIOS.obj (.text:ti_sysbios_hal_Hwi_Instance_init__F)
                  c3023a20    00000060     dsp_pe674.oe674 (.text:ti_sysbios_hal_Hwi_Object__delete__S)
                  c3023a80    00000060     sysbios.ae674 : BIOS.obj (.text:ti_sysbios_knl_Clock_setupTimerToSkipTicks__E)
                  c3023ae0    00000060                   : BIOS.obj (.text:ti_sysbios_knl_Semaphore_Instance_init__F)
                  c3023b40    00000060     dsp_pe674.oe674 (.text:ti_sysbios_knl_Semaphore_Object__delete__S)
                  c3023ba0    00000060     sysbios.ae674 : BIOS.obj (.text:ti_sysbios_knl_Swi_Module_startup__F)
                  c3023c00    00000060                   : BIOS.obj (.text:ti_sysbios_knl_Task_enter__I)
                  c3023c60    00000060                   : BIOS.obj (.text:ti_sysbios_knl_Task_sleepTimeout__I)
                  c3023cc0    00000060     dsp_pe674.oe674 (.text:ti_sysbios_syncs_SyncSem_Object__delete__S)
                  c3023d20    00000060     dsp_pe674.oe674 (.text:ti_sysbios_timers_timer64_Timer_Object__delete__S)
                  c3023d80    00000060     dsp_pe674.oe674 (.text:ti_sysbios_xdcruntime_GateThreadSupport_Object__delete__S)
                  c3023de0    00000060     ti.syslink.ipc.rtos.ae674 : Syslink.oe674 (.text:ti_syslink_ipc_rtos_Syslink_attach)
                  c3023e40    00000060     rts6740_elf.lib : trgmsg.obj (.text:writemsg)
                  c3023ea0    00000060     dsp_pe674.oe674 (.text:xdc_runtime_GateNull_Object__create__S)
                  c3023f00    00000060     dsp_pe674.oe674 (.text:xdc_runtime_LoggerBuf_Object__delete__S)
                  c3023f60    00000060     ti.targets.rts6000.ae674 : Memory.oe674 (.text:xdc_runtime_Memory_calloc__F)
                  c3023fc0    00000060                              : Memory.oe674 (.text:xdc_runtime_Memory_valloc__F)
                  c3024020    00000060                              : SysMin.oe674 (.text:xdc_runtime_SysMin_Module_startup__F)
                  c3024080    00000060                              : SysMin.oe674 (.text:xdc_runtime_SysMin_exit__F)
                  c30240e0    00000060     dsp_pe674.oe674 (.text:xdc_runtime_SysMin_output__I)
                  c3024140    00000060     ti.targets.rts6000.ae674 : System.oe674 (.text:xdc_runtime_System_aprintf_va__F)
                  c30241a0    00000060                              : System.oe674 (.text:xdc_runtime_System_printf_va__F)
                  c3024200    00000060                              : Text.oe674 (.text:xdc_runtime_Text_cordText__F)
                  c3024260    00000060     dsp_pe674.oe674 (.text:xdc_runtime_knl_GateThread_Object__delete__S)
                  c30242c0    00000040     ipc.ae674 : Ipc.obj (.text:MessageQ_create)
                  c3024300    00000040               : Ipc.obj (.text:MessageQ_registerHeap)
                  c3024340    00000040               : Ipc.obj (.text:MessageQ_unregisterHeap)
                  c3024380    00000040               : Ipc.obj (.text:Notify_intLineRegistered)
                  c30243c0    00000040     rts6740_elf.lib : frcmpyd_div.obj (.text:__c6xabi_frcmpyd_div)
                  c3024400    00000040                     : llshift.obj (.text:__c6xabi_llshru)
                  c3024440    00000040                     : args_main.obj (.text:_args_main)
                  c3024480    00000040     sysbios.ae674 : c62_TaskSupport_asm.obj (.text:_ti_sysbios_family_c62_TaskSupport_buildTaskStack)
                  c30244c0    00000040                   : c64p_Hwi_asm_switch.obj (.text:_ti_sysbios_family_xxx_Hwi_switchToIsrStack)
                  c3024500    00000040     dsp_pe674.oe674 (.text:free)
                  c3024540    00000040     ipc.ae674 : Ipc.obj (.text:ti_sdo_ipc_MessageQ_registerTransport__F)
                  c3024580    00000040               : Ipc.obj (.text:ti_sdo_ipc_MessageQ_unregisterTransport__F)
                  c30245c0    00000040               : Ipc.obj (.text:ti_sdo_ipc_Notify_exec__F)
                  c3024600    00000040               : Ipc.obj (.text:ti_sdo_ipc_SharedRegion_resetInternalFields__F)
                  c3024640    00000040               : Ipc.obj (.text:ti_sdo_ipc_family_da830_InterruptDsp_intClear__E)
                  c3024680    00000040               : Ipc.obj (.text:ti_sdo_ipc_family_da830_InterruptDsp_intSend__E)
                  c30246c0    00000040     dsp_pe674.oe674 (.text:ti_sdo_ipc_gates_GateMPSupportNull_Handle__label__S)
                  c3024700    00000040     dsp_pe674.oe674 (.text:ti_sdo_ipc_gates_GateMPSupportNull_Object__delete__S)
                  c3024740    00000040     dsp_pe674.oe674 (.text:ti_sdo_ipc_gates_GatePeterson_Handle__label__S)
                  c3024780    00000040     dsp_pe674.oe674 (.text:ti_sdo_ipc_heaps_HeapBufMP_Handle__label__S)
                  c30247c0    00000040     dsp_pe674.oe674 (.text:ti_sdo_ipc_heaps_HeapMemMP_Handle__label__S)
                  c3024800    00000040     dsp_pe674.oe674 (.text:ti_sdo_ipc_notifyDrivers_NotifyDriverShm_Handle__label__S)
                  c3024840    00000040     dsp_pe674.oe674 (.text:ti_sdo_ipc_nsremote_NameServerRemoteNotify_Handle__label__S)
                  c3024880    00000040     ipc.ae674 : Ipc.obj (.text:ti_sdo_ipc_nsremote_NameServerRemoteNotify_sharedMemReq__E)
                  c30248c0    00000040     dsp_pe674.oe674 (.text:ti_sdo_ipc_transports_TransportShm_Handle__label__S)
                  c3024900    00000040     ipc.ae674 : Ipc.obj (.text:ti_sdo_utils_List_get__E)
                  c3024940    00000040               : Ipc.obj (.text:ti_sdo_utils_List_putHead__E)
                  c3024980    00000040               : Ipc.obj (.text:ti_sdo_utils_List_put__E)
                  c30249c0    00000040     dsp_pe674.oe674 (.text:ti_sdo_utils_NameServer_Module__startupDone__F)
                  c3024a00    00000040     dsp_pe674.oe674 (.text:ti_sdo_utils_NameServer_Object__get__S)
                  c3024a40    00000040     ipc.ae674 : Ipc.obj (.text:ti_sdo_utils_NameServer_registerRemoteDriver__E)
                  c3024a80    00000040               : Ipc.obj (.text:ti_sdo_utils_NameServer_unregisterRemoteDriver__E)
                  c3024ac0    00000040     sysbios.ae674 : BIOS.obj (.text:ti_sysbios_BIOS_rtsUnlock__I)
                  c3024b00    00000040     dsp_pe674.oe674 (.text:ti_sysbios_BIOS_startFunc__I)
                  c3024b40    00000040     dsp_pe674.oe674 (.text:ti_sysbios_family_c64p_Hwi_Module__startupDone__F)
                  c3024b80    00000040     sysbios.ae674 : BIOS.obj (.text:ti_sysbios_family_c64p_Hwi_disableInterrupt__E)
                  c3024bc0    00000040                   : BIOS.obj (.text:ti_sysbios_family_c64p_Hwi_enableInterrupt__E)
                  c3024c00    00000040                   : BIOS.obj (.text:ti_sysbios_family_c64p_primus_TimerSupport_enable__E)
                  c3024c40    00000040     dsp_pe674.oe674 (.text:ti_sysbios_gates_GateAll_Handle__label__S)
                  c3024c80    00000040     dsp_pe674.oe674 (.text:ti_sysbios_gates_GateAll_Object__delete__S)
                  c3024cc0    00000040     dsp_pe674.oe674 (.text:ti_sysbios_gates_GateHwi_Handle__label__S)
                  c3024d00    00000040     dsp_pe674.oe674 (.text:ti_sysbios_gates_GateHwi_Object__delete__S)
                  c3024d40    00000040     dsp_pe674.oe674 (.text:ti_sysbios_gates_GateMutexPri_Handle__label__S)
                  c3024d80    00000040     sysbios.ae674 : BIOS.obj (.text:ti_sysbios_gates_GateMutexPri_Instance_init__F)
                  c3024dc0    00000040     dsp_pe674.oe674 (.text:ti_sysbios_gates_GateMutexPri_Object__destruct__S)
                  c3024e00    00000040     dsp_pe674.oe674 (.text:ti_sysbios_gates_GateMutex_Handle__label__S)
                  c3024e40    00000040     sysbios.ae674 : BIOS.obj (.text:ti_sysbios_gates_GateMutex_leave__E)
                  c3024e80    00000040     dsp_pe674.oe674 (.text:ti_sysbios_gates_GateSwi_Handle__label__S)
                  c3024ec0    00000040     dsp_pe674.oe674 (.text:ti_sysbios_gates_GateSwi_Object__delete__S)
                  c3024f00    00000040     dsp_pe674.oe674 (.text:ti_sysbios_hal_Timer_Module__startupDone__F)
                  c3024f40    00000040     dsp_pe674.oe674 (.text:ti_sysbios_heaps_HeapMem_Handle__label__S)
                  c3024f80    00000040     dsp_pe674.oe674 (.text:ti_sysbios_heaps_HeapMem_Object__delete__S)
                  c3024fc0    00000040     dsp_pe674.oe674 (.text:ti_sysbios_heaps_HeapMem_Object__get__S)
                  c3025000    00000040     sysbios.ae674 : BIOS.obj (.text:ti_sysbios_knl_Clock_start__E)
                  c3025040    00000040                   : BIOS.obj (.text:ti_sysbios_knl_Queue_put__E)
                  c3025080    00000040     dsp_pe674.oe674 (.text:ti_sysbios_knl_Semaphore_Object__destruct__S)
                  c30250c0    00000040     dsp_pe674.oe674 (.text:ti_sysbios_knl_Swi_Object__destruct__S)
                  c3025100    00000040     dsp_pe674.oe674 (.text:ti_sysbios_knl_Swi_Object__get__S)
                  c3025140    00000040     dsp_pe674.oe674 (.text:ti_sysbios_knl_Task_Object__get__S)
                  c3025180    00000040     dsp_pe674.oe674 (.text:ti_sysbios_syncs_SyncSem_Handle__label__S)
                  c30251c0    00000040     dsp_pe674.oe674 (.text:ti_sysbios_timers_timer64_Timer_Module__startupDone__F)
                  c3025200    00000040     sysbios.ae674 : BIOS.obj (.text:ti_sysbios_xdcruntime_GateThreadSupport_Instance_init__F)
                  c3025240    00000040     ti.syslink.ipc.rtos.ae674 : Syslink.oe674 (.text:ti_syslink_ipc_rtos_Syslink_detach)
                  c3025280    00000040     ti.targets.rts6000.ae674 : Error.oe674 (.text:xdc_runtime_Error_check__F)
                  c30252c0    00000040                              : Error.oe674 (.text:xdc_runtime_Error_init__F)
                  c3025300    00000040     dsp_pe674.oe674 (.text:xdc_runtime_GateNull_Handle__label__S)
                  c3025340    00000040     dsp_pe674.oe674 (.text:xdc_runtime_GateNull_Object__delete__S)
                  c3025380    00000040     dsp_pe674.oe674 (.text:xdc_runtime_LoggerBuf_Handle__label__S)
                  c30253c0    00000040     ti.targets.rts6000.ae674 : LoggerBuf.oe674 (.text:xdc_runtime_LoggerBuf_Instance_finalize__F)
                  c3025400    00000040     dsp_pe674.oe674 (.text:xdc_runtime_LoggerBuf_Object__get__S)
                  c3025440    00000040     ti.targets.rts6000.ae674 : LoggerBuf.oe674 (.text:xdc_runtime_LoggerBuf_write0__F)
                  c3025480    00000040     dsp_pe674.oe674 (.text:xdc_runtime_LoggerBuf_write8__E)
                  c30254c0    00000040     ti.targets.rts6000.ae674 : Memory.oe674 (.text:xdc_runtime_Memory_free__F)
                  c3025500    00000040                              : Registry.oe674 (.text:xdc_runtime_Registry_findById__F)
                  c3025540    00000040                              : System.oe674 (.text:xdc_runtime_System_abort__F)
                  c3025580    00000040     dsp_pe674.oe674 (.text:xdc_runtime_System_aprintf__E)
                  c30255c0    00000040     dsp_pe674.oe674 (.text:xdc_runtime_System_printf__E)
                  c3025600    00000040     ti.targets.rts6000.ae674 : Text.oe674 (.text:xdc_runtime_Text_matchRope__F)
                  c3025640    00000040                              : Text.oe674 (.text:xdc_runtime_Text_ropeText__F)
                  c3025680    00000040     dsp_pe674.oe674 (.text:xdc_runtime_knl_GateThread_Handle__label__S)
                  c30256c0    00000040     ti.targets.rts6000.ae674 : GateThread.oe674 (.text:xdc_runtime_knl_GateThread_Instance_finalize__F)
                  c3025700    00000040                              : GateThread.oe674 (.text:xdc_runtime_knl_GateThread_Instance_init__F)
                  c3025740    00000020     ipc.ae674 : Ipc.obj (.text:GateMP_enter)
                  c3025760    00000020               : Ipc.obj (.text:GateMP_leave)
                  c3025780    00000020               : Ipc.obj (.text:HeapBufMP_close)
                  c30257a0    00000020               : Ipc.obj (.text:ListMP_close)
                  c30257c0    00000020               : Ipc.obj (.text:ListMP_delete)
                  c30257e0    00000020               : Ipc.obj (.text:MessageQ_Params_init)
                  c3025800    00000020               : Ipc.obj (.text:MessageQ_close)
                  c3025820    00000020               : Ipc.obj (.text:MessageQ_delete)
                  c3025840    00000020               : Ipc.obj (.text:NameServer_addUInt32)
                  c3025860    00000020               : Ipc.obj (.text:NameServer_getUInt32)
                  c3025880    00000020               : Ipc.obj (.text:NameServer_removeEntry)
                  c30258a0    00000020     utils.lib : uartStdio.obj (.text:UARTGetc)
                  c30258c0    00000020               : uartStdio.obj (.text:UARTPutc)
                  c30258e0    00000020               : uartStdio.obj (.text:UARTStdioInit)
                  c3025900    00000020     rts6740_elf.lib : dtor_list.obj (.text:__cxa_atexit)
                  c3025920    00000020                     : dtor_list.obj (.text:__cxa_ia64_exit)
                  c3025940    00000020     ti.targets.rts6000.ae674 : xdc_noinit.oe674 (.text:__xdc__init)
                  c3025960    00000020     rts6740_elf.lib : _lock.obj (.text:_nop)
                  c3025980    00000020                     : _lock.obj (.text:_register_lock)
                  c30259a0    00000020                     : _lock.obj (.text:_register_unlock)
                  c30259c0    00000020     sysbios.ae674 : c62_TaskSupport_asm.obj (.text:_ti_sysbios_family_c62_TaskSupport_glue)
                  c30259e0    00000020                   : c64p_Hwi_asm_switch.obj (.text:_ti_sysbios_family_xxx_Hwi_switchToTaskStack)
                  c3025a00    00000020     rts6740_elf.lib : exit.obj (.text:abort)
                  c3025a20    00000020                     : dtor_list.obj (.text:atexit)
                  c3025a40    00000020     dsp_pe674.oe674 (.text:ti_sdo_ipc_GateMP_Params__init__S)
                  c3025a60    00000020     dsp_pe674.oe674 (.text:ti_sdo_ipc_GateMP_RemoteCustom1Proxy_Object__create__S)
                  c3025a80    00000020     dsp_pe674.oe674 (.text:ti_sdo_ipc_GateMP_RemoteCustom1Proxy_Object__delete__S)
                  c3025aa0    00000020     dsp_pe674.oe674 (.text:ti_sdo_ipc_GateMP_RemoteCustom1Proxy_Params__init__S)
                  c3025ac0    00000020     dsp_pe674.oe674 (.text:ti_sdo_ipc_GateMP_RemoteCustom1Proxy_Proxy__abstract__S)
                  c3025ae0    00000020     dsp_pe674.oe674 (.text:ti_sdo_ipc_GateMP_RemoteCustom1Proxy_Proxy__delegate__S)
                  c3025b00    00000020     dsp_pe674.oe674 (.text:ti_sdo_ipc_GateMP_RemoteCustom1Proxy_getReservedMask__E)
                  c3025b20    00000020     dsp_pe674.oe674 (.text:ti_sdo_ipc_GateMP_RemoteCustom1Proxy_sharedMemReq__E)
                  c3025b40    00000020     dsp_pe674.oe674 (.text:ti_sdo_ipc_GateMP_RemoteCustom2Proxy_Object__create__S)
                  c3025b60    00000020     dsp_pe674.oe674 (.text:ti_sdo_ipc_GateMP_RemoteCustom2Proxy_Object__delete__S)
                  c3025b80    00000020     dsp_pe674.oe674 (.text:ti_sdo_ipc_GateMP_RemoteCustom2Proxy_Params__init__S)
                  c3025ba0    00000020     dsp_pe674.oe674 (.text:ti_sdo_ipc_GateMP_RemoteCustom2Proxy_Proxy__abstract__S)
                  c3025bc0    00000020     dsp_pe674.oe674 (.text:ti_sdo_ipc_GateMP_RemoteCustom2Proxy_Proxy__delegate__S)
                  c3025be0    00000020     dsp_pe674.oe674 (.text:ti_sdo_ipc_GateMP_RemoteCustom2Proxy_getReservedMask__E)
                  c3025c00    00000020     dsp_pe674.oe674 (.text:ti_sdo_ipc_GateMP_RemoteCustom2Proxy_sharedMemReq__E)
                  c3025c20    00000020     dsp_pe674.oe674 (.text:ti_sdo_ipc_GateMP_RemoteSystemProxy_Object__create__S)
                  c3025c40    00000020     dsp_pe674.oe674 (.text:ti_sdo_ipc_GateMP_RemoteSystemProxy_Object__delete__S)
                  c3025c60    00000020     dsp_pe674.oe674 (.text:ti_sdo_ipc_GateMP_RemoteSystemProxy_Params__init__S)
                  c3025c80    00000020     dsp_pe674.oe674 (.text:ti_sdo_ipc_GateMP_RemoteSystemProxy_Proxy__abstract__S)
                  c3025ca0    00000020     dsp_pe674.oe674 (.text:ti_sdo_ipc_GateMP_RemoteSystemProxy_Proxy__delegate__S)
                  c3025cc0    00000020     dsp_pe674.oe674 (.text:ti_sdo_ipc_GateMP_RemoteSystemProxy_getReservedMask__E)
                  c3025ce0    00000020     dsp_pe674.oe674 (.text:ti_sdo_ipc_GateMP_RemoteSystemProxy_sharedMemReq__E)
                  c3025d00    00000020     dsp_pe674.oe674 (.text:ti_sdo_ipc_GateMP_attach__E)
                  c3025d20    00000020     dsp_pe674.oe674 (.text:ti_sdo_ipc_GateMP_detach__E)
                  c3025d40    00000020     dsp_pe674.oe674 (.text:ti_sdo_ipc_GateMP_getRegion0ReservedSize__E)
                  c3025d60    00000020     dsp_pe674.oe674 (.text:ti_sdo_ipc_GateMP_getSharedAddr__E)
                  c3025d80    00000020     ipc.ae674 : Ipc.obj (.text:ti_sdo_ipc_GateMP_getSharedAddr__F)
                  c3025da0    00000020     dsp_pe674.oe674 (.text:ti_sdo_ipc_GateMP_start__E)
                  c3025dc0    00000020     dsp_pe674.oe674 (.text:ti_sdo_ipc_GateMP_stop__E)
                  c3025de0    00000020     dsp_pe674.oe674 (.text:ti_sdo_ipc_ListMP_Params__init__S)
                  c3025e00    00000020     dsp_pe674.oe674 (.text:ti_sdo_ipc_MessageQ_Module_startup__E)
                  c3025e20    00000020     dsp_pe674.oe674 (.text:ti_sdo_ipc_MessageQ_Object__get__S)
                  c3025e40    00000020     dsp_pe674.oe674 (.text:ti_sdo_ipc_MessageQ_Params__init__S)
                  c3025e60    00000020     dsp_pe674.oe674 (.text:ti_sdo_ipc_MessageQ_SetupTransportProxy_attach__E)
                  c3025e80    00000020     dsp_pe674.oe674 (.text:ti_sdo_ipc_MessageQ_SetupTransportProxy_detach__E)
                  c3025ea0    00000020     dsp_pe674.oe674 (.text:ti_sdo_ipc_MessageQ_SetupTransportProxy_isRegistered__E)
                  c3025ec0    00000020     dsp_pe674.oe674 (.text:ti_sdo_ipc_MessageQ_SetupTransportProxy_sharedMemReq__E)
                  c3025ee0    00000020     dsp_pe674.oe674 (.text:ti_sdo_ipc_MessageQ_registerTransport__E)
                  c3025f00    00000020     dsp_pe674.oe674 (.text:ti_sdo_ipc_MessageQ_unregisterTransport__E)
                  c3025f20    00000020     dsp_pe674.oe674 (.text:ti_sdo_ipc_Notify_Module_GateProxy_enter__E)
                  c3025f40    00000020     dsp_pe674.oe674 (.text:ti_sdo_ipc_Notify_Module_GateProxy_leave__E)
                  c3025f60    00000020     dsp_pe674.oe674 (.text:ti_sdo_ipc_Notify_Module_startup__E)
                  c3025f80    00000020     dsp_pe674.oe674 (.text:ti_sdo_ipc_Notify_SetupProxy_attach__E)
                  c3025fa0    00000020     dsp_pe674.oe674 (.text:ti_sdo_ipc_Notify_SetupProxy_numIntLines__E)
                  c3025fc0    00000020     dsp_pe674.oe674 (.text:ti_sdo_ipc_Notify_SetupProxy_sharedMemReq__E)
                  c3025fe0    00000020     dsp_pe674.oe674 (.text:ti_sdo_ipc_Notify_detach__E)
                  c3026000    00000020     dsp_pe674.oe674 (.text:ti_sdo_ipc_Notify_exec__E)
                  c3026020    00000020     dsp_pe674.oe674 (.text:ti_sdo_ipc_SharedRegion_attach__E)
                  c3026040    00000020     dsp_pe674.oe674 (.text:ti_sdo_ipc_SharedRegion_clearReservedMemory__E)
                  c3026060    00000020     dsp_pe674.oe674 (.text:ti_sdo_ipc_SharedRegion_detach__E)
                  c3026080    00000020     dsp_pe674.oe674 (.text:ti_sdo_ipc_SharedRegion_reserveMemory__E)
                  c30260a0    00000020     dsp_pe674.oe674 (.text:ti_sdo_ipc_SharedRegion_resetInternalFields__E)
                  c30260c0    00000020     dsp_pe674.oe674 (.text:ti_sdo_ipc_SharedRegion_start__E)
                  c30260e0    00000020     dsp_pe674.oe674 (.text:ti_sdo_ipc_SharedRegion_stop__E)
                  c3026100    00000020     ipc.ae674 : Ipc.obj (.text:ti_sdo_ipc_family_da830_InterruptDsp_intDisable__E)
                  c3026120    00000020               : Ipc.obj (.text:ti_sdo_ipc_family_da830_InterruptDsp_intEnable__E)
                  c3026140    00000020               : Ipc.obj (.text:ti_sdo_ipc_family_da830_InterruptDsp_intUnregister__E)
                  c3026160    00000020               : Ipc.obj (.text:ti_sdo_ipc_family_da830_NotifySetup_numIntLines__E)
                  c3026180    00000020               : Ipc.obj (.text:ti_sdo_ipc_gates_GateMPSupportNull_Instance_init__F)
                  c30261a0    00000020     dsp_pe674.oe674 (.text:ti_sdo_ipc_gates_GateMPSupportNull_Params__init__S)
                  c30261c0    00000020     ipc.ae674 : Ipc.obj (.text:ti_sdo_ipc_gates_GateMPSupportNull_enter__E)
                  c30261e0    00000020               : Ipc.obj (.text:ti_sdo_ipc_gates_GateMPSupportNull_getReservedMask__E)
                  c3026200    00000020               : Ipc.obj (.text:ti_sdo_ipc_gates_GateMPSupportNull_leave__E)
                  c3026220    00000020     dsp_pe674.oe674 (.text:ti_sdo_ipc_gates_GateMPSupportNull_query__E)
                  c3026240    00000020     ipc.ae674 : Ipc.obj (.text:ti_sdo_ipc_gates_GateMPSupportNull_query__F)
                  c3026260    00000020               : Ipc.obj (.text:ti_sdo_ipc_gates_GateMPSupportNull_sharedMemReq__E)
                  c3026280    00000020     dsp_pe674.oe674 (.text:ti_sdo_ipc_gates_GatePeterson_Params__init__S)
                  c30262a0    00000020     ipc.ae674 : Ipc.obj (.text:ti_sdo_ipc_gates_GatePeterson_getReservedMask__E)
                  c30262c0    00000020     dsp_pe674.oe674 (.text:ti_sdo_ipc_gates_GatePeterson_query__E)
                  c30262e0    00000020     ipc.ae674 : Ipc.obj (.text:ti_sdo_ipc_gates_GatePeterson_query__F)
                  c3026300    00000020     dsp_pe674.oe674 (.text:ti_sdo_ipc_heaps_HeapBufMP_Params__init__S)
                  c3026320    00000020     dsp_pe674.oe674 (.text:ti_sdo_ipc_heaps_HeapBufMP_getStats__E)
                  c3026340    00000020     dsp_pe674.oe674 (.text:ti_sdo_ipc_heaps_HeapBufMP_isBlocking__E)
                  c3026360    00000020     ipc.ae674 : Ipc.obj (.text:ti_sdo_ipc_heaps_HeapBufMP_isBlocking__F)
                  c3026380    00000020     dsp_pe674.oe674 (.text:ti_sdo_ipc_heaps_HeapMemMP_Params__init__S)
                  c30263a0    00000020     dsp_pe674.oe674 (.text:ti_sdo_ipc_heaps_HeapMemMP_isBlocking__E)
                  c30263c0    00000020     ipc.ae674 : Ipc.obj (.text:ti_sdo_ipc_heaps_HeapMemMP_isBlocking__F)
                  c30263e0    00000020     dsp_pe674.oe674 (.text:ti_sdo_ipc_notifyDrivers_NotifyDriverShm_InterruptProxy_intClear__E)
                  c3026400    00000020     dsp_pe674.oe674 (.text:ti_sdo_ipc_notifyDrivers_NotifyDriverShm_InterruptProxy_intDisable__E)
                  c3026420    00000020     dsp_pe674.oe674 (.text:ti_sdo_ipc_notifyDrivers_NotifyDriverShm_InterruptProxy_intEnable__E)
                  c3026440    00000020     dsp_pe674.oe674 (.text:ti_sdo_ipc_notifyDrivers_NotifyDriverShm_InterruptProxy_intRegister__E)
                  c3026460    00000020     dsp_pe674.oe674 (.text:ti_sdo_ipc_notifyDrivers_NotifyDriverShm_InterruptProxy_intSend__E)
                  c3026480    00000020     dsp_pe674.oe674 (.text:ti_sdo_ipc_notifyDrivers_NotifyDriverShm_InterruptProxy_intUnregister__E)
                  c30264a0    00000020     dsp_pe674.oe674 (.text:ti_sdo_ipc_notifyDrivers_NotifyDriverShm_Params__init__S)
                  c30264c0    00000020     ipc.ae674 : Ipc.obj (.text:ti_sdo_ipc_notifyDrivers_NotifyDriverShm_disable__E)
                  c30264e0    00000020               : Ipc.obj (.text:ti_sdo_ipc_notifyDrivers_NotifyDriverShm_enable__E)
                  c3026500    00000020     dsp_pe674.oe674 (.text:ti_sdo_ipc_notifyDrivers_NotifyDriverShm_sharedMemReq__E)
                  c3026520    00000020     dsp_pe674.oe674 (.text:ti_sdo_ipc_nsremote_NameServerRemoteNotify_Object__first__S)
                  c3026540    00000020     dsp_pe674.oe674 (.text:ti_sdo_ipc_nsremote_NameServerRemoteNotify_Object__next__S)
                  c3026560    00000020     dsp_pe674.oe674 (.text:ti_sdo_ipc_nsremote_NameServerRemoteNotify_Params__init__S)
                  c3026580    00000020     ipc.ae674 : Ipc.obj (.text:ti_sdo_ipc_nsremote_NameServerRemoteNotify_cbFxn__I)
                  c30265a0    00000020     dsp_pe674.oe674 (.text:ti_sdo_ipc_nsremote_NameServerRemoteNotify_get__E)
                  c30265c0    00000020     ipc.ae674 : Ipc.obj (.text:ti_sdo_ipc_transports_TransportShmSetup_isRegistered__E)
                  c30265e0    00000020     dsp_pe674.oe674 (.text:ti_sdo_ipc_transports_TransportShm_Params__init__S)
                  c3026600    00000020     dsp_pe674.oe674 (.text:ti_sdo_ipc_transports_TransportShm_close__E)
                  c3026620    00000020     ipc.ae674 : Ipc.obj (.text:ti_sdo_ipc_transports_TransportShm_close__F)
                  c3026640    00000020               : Ipc.obj (.text:ti_sdo_ipc_transports_TransportShm_control__E)
                  c3026660    00000020               : Ipc.obj (.text:ti_sdo_ipc_transports_TransportShm_getStatus__E)
                  c3026680    00000020               : Ipc.obj (.text:ti_sdo_ipc_transports_TransportShm_notifyFxn__I)
                  c30266a0    00000020     dsp_pe674.oe674 (.text:ti_sdo_ipc_transports_TransportShm_openByAddr__E)
                  c30266c0    00000020     dsp_pe674.oe674 (.text:ti_sdo_ipc_transports_TransportShm_setErrFxn__E)
                  c30266e0    00000020     ipc.ae674 : Ipc.obj (.text:ti_sdo_ipc_transports_TransportShm_setErrFxn__F)
                  c3026700    00000020     dsp_pe674.oe674 (.text:ti_sdo_ipc_transports_TransportShm_sharedMemReq__E)
                  c3026720    00000020     ipc.ae674 : Ipc.obj (.text:ti_sdo_utils_List_Instance_init__F)
                  c3026740    00000020     dsp_pe674.oe674 (.text:ti_sdo_utils_List_Object__destruct__S)
                  c3026760    00000020     dsp_pe674.oe674 (.text:ti_sdo_utils_List_Object__get__S)
                  c3026780    00000020     dsp_pe674.oe674 (.text:ti_sdo_utils_MultiProc_getClusterId__E)
                  c30267a0    00000020     ipc.ae674 : Ipc.obj (.text:ti_sdo_utils_MultiProc_getClusterId__F)
                  c30267c0    00000020     dsp_pe674.oe674 (.text:ti_sdo_utils_NameServer_Module__startupDone__S)
                  c30267e0    00000020     dsp_pe674.oe674 (.text:ti_sdo_utils_NameServer_Module_startup__E)
                  c3026800    00000020     dsp_pe674.oe674 (.text:ti_sdo_utils_NameServer_Object__first__S)
                  c3026820    00000020     dsp_pe674.oe674 (.text:ti_sdo_utils_NameServer_Object__next__S)
                  c3026840    00000020     dsp_pe674.oe674 (.text:ti_sdo_utils_NameServer_SetupProxy_attach__E)
                  c3026860    00000020     dsp_pe674.oe674 (.text:ti_sdo_utils_NameServer_SetupProxy_detach__E)
                  c3026880    00000020     dsp_pe674.oe674 (.text:ti_sdo_utils_NameServer_SetupProxy_sharedMemReq__E)
                  c30268a0    00000020     dsp_pe674.oe674 (.text:ti_sysbios_BIOS_RtsGateProxy_enter__E)
                  c30268c0    00000020     dsp_pe674.oe674 (.text:ti_sysbios_BIOS_RtsGateProxy_leave__E)
                  c30268e0    00000020     sysbios.ae674 : BIOS.obj (.text:ti_sysbios_BIOS_getThreadType__E)
                  c3026900    00000020                   : BIOS.obj (.text:ti_sysbios_BIOS_nullFunc__I)
                  c3026920    00000020                   : BIOS.obj (.text:ti_sysbios_BIOS_setThreadType__E)
                  c3026940    00000020                   : BIOS.obj (.text:ti_sysbios_BIOS_start__E)
                  c3026960    00000020     dsp_pe674.oe674 (.text:ti_sysbios_family_c62_TaskSupport_Module__startupDone__S)
                  c3026980    00000020     sysbios.ae674 : BIOS.obj (.text:ti_sysbios_family_c62_TaskSupport_checkStack__E)
                  c30269a0    00000020                   : BIOS.obj (.text:ti_sysbios_family_c62_TaskSupport_getStackAlignment__E)
                  c30269c0    00000020     dsp_pe674.oe674 (.text:ti_sysbios_family_c64p_Cache_Module_startup__E)
                  c30269e0    00000020     sysbios.ae674 : BIOS.obj (.text:ti_sysbios_family_c64p_Cache_invL1pAll__E)
                  c3026a00    00000020                   : BIOS.obj (.text:ti_sysbios_family_c64p_Cache_inv__E)
                  c3026a20    00000020                   : BIOS.obj (.text:ti_sysbios_family_c64p_Cache_wbInv__E)
                  c3026a40    00000020                   : BIOS.obj (.text:ti_sysbios_family_c64p_Cache_wb__E)
                  c3026a60    00000020     dsp_pe674.oe674 (.text:ti_sysbios_family_c64p_Exception_Module_startup__E)
                  c3026a80    00000020     dsp_pe674.oe674 (.text:ti_sysbios_family_c64p_Hwi_Module__startupDone__S)
                  c3026aa0    00000020     dsp_pe674.oe674 (.text:ti_sysbios_family_c64p_Hwi_Module_startup__E)
                  c3026ac0    00000020     dsp_pe674.oe674 (.text:ti_sysbios_family_c64p_Hwi_Params__init__S)
                  c3026ae0    00000020     sysbios.ae674 : BIOS.obj (.text:ti_sysbios_family_c64p_Hwi_clearInterrupt__E)
                  c3026b00    00000020                   : BIOS.obj (.text:ti_sysbios_family_c64p_Hwi_getHandle__E)
                  c3026b20    00000020                   : BIOS.obj (.text:ti_sysbios_family_c64p_Hwi_startup__E)
                  c3026b40    00000020                   : BIOS.obj (.text:ti_sysbios_family_c64p_Hwi_switchFromBootStack__E)
                  c3026b60    00000020                   : BIOS.obj (.text:ti_sysbios_family_c64p_Hwi_unPluggedInterrupt__I)
                  c3026b80    00000020     dsp_pe674.oe674 (.text:ti_sysbios_family_c64p_TimestampProvider_Module_startup__E)
                  c3026ba0    00000020     sysbios.ae674 : BIOS.obj (.text:ti_sysbios_family_c64p_TimestampProvider_Module_startup__F)
                  c3026bc0    00000020                   : BIOS.obj (.text:ti_sysbios_family_c64p_TimestampProvider_get64__E)
                  c3026be0    00000020                   : BIOS.obj (.text:ti_sysbios_gates_GateAll_Instance_init__F)
                  c3026c00    00000020     dsp_pe674.oe674 (.text:ti_sysbios_gates_GateAll_query__E)
                  c3026c20    00000020     sysbios.ae674 : BIOS.obj (.text:ti_sysbios_gates_GateAll_query__F)
                  c3026c40    00000020                   : BIOS.obj (.text:ti_sysbios_gates_GateHwi_Instance_init__F)
                  c3026c60    00000020                   : BIOS.obj (.text:ti_sysbios_gates_GateHwi_enter__E)
                  c3026c80    00000020                   : BIOS.obj (.text:ti_sysbios_gates_GateHwi_leave__E)
                  c3026ca0    00000020     dsp_pe674.oe674 (.text:ti_sysbios_gates_GateHwi_query__E)
                  c3026cc0    00000020     sysbios.ae674 : BIOS.obj (.text:ti_sysbios_gates_GateHwi_query__F)
                  c3026ce0    00000020                   : BIOS.obj (.text:ti_sysbios_gates_GateMutexPri_Instance_finalize__F)
                  c3026d00    00000020     dsp_pe674.oe674 (.text:ti_sysbios_gates_GateMutexPri_query__E)
                  c3026d20    00000020     sysbios.ae674 : BIOS.obj (.text:ti_sysbios_gates_GateMutexPri_query__F)
                  c3026d40    00000020                   : BIOS.obj (.text:ti_sysbios_gates_GateMutex_Instance_finalize__F)
                  c3026d60    00000020     dsp_pe674.oe674 (.text:ti_sysbios_gates_GateMutex_query__E)
                  c3026d80    00000020     sysbios.ae674 : BIOS.obj (.text:ti_sysbios_gates_GateMutex_query__F)
                  c3026da0    00000020                   : BIOS.obj (.text:ti_sysbios_gates_GateSwi_Instance_init__F)
                  c3026dc0    00000020                   : BIOS.obj (.text:ti_sysbios_gates_GateSwi_enter__E)
                  c3026de0    00000020                   : BIOS.obj (.text:ti_sysbios_gates_GateSwi_leave__E)
                  c3026e00    00000020     dsp_pe674.oe674 (.text:ti_sysbios_gates_GateSwi_query__E)
                  c3026e20    00000020     sysbios.ae674 : BIOS.obj (.text:ti_sysbios_gates_GateSwi_query__F)
                  c3026e40    00000020     dsp_pe674.oe674 (.text:ti_sysbios_hal_Cache_CacheProxy_inv__E)
                  c3026e60    00000020     dsp_pe674.oe674 (.text:ti_sysbios_hal_Cache_CacheProxy_wbInv__E)
                  c3026e80    00000020     dsp_pe674.oe674 (.text:ti_sysbios_hal_Cache_CacheProxy_wb__E)
                  c3026ea0    00000020     sysbios.ae674 : BIOS.obj (.text:ti_sysbios_hal_Cache_inv__E)
                  c3026ec0    00000020                   : BIOS.obj (.text:ti_sysbios_hal_Cache_wbInv__E)
                  c3026ee0    00000020                   : BIOS.obj (.text:ti_sysbios_hal_Cache_wb__E)
                  c3026f00    00000020     dsp_pe674.oe674 (.text:ti_sysbios_hal_Hwi_HwiProxy_Module__startupDone__S)
                  c3026f20    00000020     dsp_pe674.oe674 (.text:ti_sysbios_hal_Hwi_HwiProxy_Object__create__S)
                  c3026f40    00000020     dsp_pe674.oe674 (.text:ti_sysbios_hal_Hwi_HwiProxy_Object__delete__S)
                  c3026f60    00000020     dsp_pe674.oe674 (.text:ti_sysbios_hal_Hwi_HwiProxy_clearInterrupt__E)
                  c3026f80    00000020     dsp_pe674.oe674 (.text:ti_sysbios_hal_Hwi_HwiProxy_disableInterrupt__E)
                  c3026fa0    00000020     dsp_pe674.oe674 (.text:ti_sysbios_hal_Hwi_HwiProxy_enableInterrupt__E)
                  c3026fc0    00000020     dsp_pe674.oe674 (.text:ti_sysbios_hal_Hwi_HwiProxy_getStackInfo__E)
                  c3026fe0    00000020     dsp_pe674.oe674 (.text:ti_sysbios_hal_Hwi_HwiProxy_startup__E)
                  c3027000    00000020     dsp_pe674.oe674 (.text:ti_sysbios_hal_Hwi_HwiProxy_switchFromBootStack__E)
                  c3027020    00000020     sysbios.ae674 : BIOS.obj (.text:ti_sysbios_hal_Hwi_Instance_finalize__F)
                  c3027040    00000020     dsp_pe674.oe674 (.text:ti_sysbios_hal_Hwi_Module_startup__E)
                  c3027060    00000020     sysbios.ae674 : BIOS.obj (.text:ti_sysbios_hal_Hwi_Module_startup__F)
                  c3027080    00000020     dsp_pe674.oe674 (.text:ti_sysbios_hal_Hwi_Params__init__S)
                  c30270a0    00000020     sysbios.ae674 : BIOS.obj (.text:ti_sysbios_hal_Hwi_enableInterrupt__E)
                  c30270c0    00000020                   : BIOS.obj (.text:ti_sysbios_hal_Hwi_startup__E)
                  c30270e0    00000020     dsp_pe674.oe674 (.text:ti_sysbios_hal_Timer_Module__startupDone__S)
                  c3027100    00000020     dsp_pe674.oe674 (.text:ti_sysbios_hal_Timer_Module_startup__E)
                  c3027120    00000020     sysbios.ae674 : BIOS.obj (.text:ti_sysbios_hal_Timer_Module_startup__F)
                  c3027140    00000020     dsp_pe674.oe674 (.text:ti_sysbios_hal_Timer_TimerProxy_Module__startupDone__S)
                  c3027160    00000020     dsp_pe674.oe674 (.text:ti_sysbios_hal_Timer_TimerProxy_getExpiredCounts__E)
                  c3027180    00000020     dsp_pe674.oe674 (.text:ti_sysbios_hal_Timer_TimerProxy_getPeriod__E)
                  c30271a0    00000020     dsp_pe674.oe674 (.text:ti_sysbios_hal_Timer_TimerProxy_setNextTick__E)
                  c30271c0    00000020     dsp_pe674.oe674 (.text:ti_sysbios_hal_Timer_TimerProxy_startup__E)
                  c30271e0    00000020     sysbios.ae674 : BIOS.obj (.text:ti_sysbios_hal_Timer_startup__E)
                  c3027200    00000020     dsp_pe674.oe674 (.text:ti_sysbios_heaps_HeapMem_Module_GateProxy_enter__E)
                  c3027220    00000020     dsp_pe674.oe674 (.text:ti_sysbios_heaps_HeapMem_Module_GateProxy_leave__E)
                  c3027240    00000020     dsp_pe674.oe674 (.text:ti_sysbios_heaps_HeapMem_Module_GateProxy_query__E)
                  c3027260    00000020     sysbios.ae674 : BIOS.obj (.text:ti_sysbios_heaps_HeapMem_isBlocking__E)
                  c3027280    00000020     dsp_pe674.oe674 (.text:ti_sysbios_knl_Clock_Module_startup__E)
                  c30272a0    00000020     dsp_pe674.oe674 (.text:ti_sysbios_knl_Clock_Params__init__S)
                  c30272c0    00000020     sysbios.ae674 : BIOS.obj (.text:ti_sysbios_knl_Clock_logTick__E)
                  c30272e0    00000020                   : BIOS.obj (.text:ti_sysbios_knl_Idle_loop__E)
                  c3027300    00000020                   : BIOS.obj (.text:ti_sysbios_knl_Queue_Instance_init__F)
                  c3027320    00000020     dsp_pe674.oe674 (.text:ti_sysbios_knl_Queue_Object__destruct__S)
                  c3027340    00000020     dsp_pe674.oe674 (.text:ti_sysbios_knl_Queue_Object__get__S)
                  c3027360    00000020     sysbios.ae674 : BIOS.obj (.text:ti_sysbios_knl_Queue_empty__E)
                  c3027380    00000020                   : BIOS.obj (.text:ti_sysbios_knl_Semaphore_Instance_finalize__F)
                  c30273a0    00000020     dsp_pe674.oe674 (.text:ti_sysbios_knl_Semaphore_Params__init__S)
                  c30273c0    00000020     sysbios.ae674 : BIOS.obj (.text:ti_sysbios_knl_Swi_Instance_finalize__F)
                  c30273e0    00000020     dsp_pe674.oe674 (.text:ti_sysbios_knl_Swi_Module_startup__E)
                  c3027400    00000020     dsp_pe674.oe674 (.text:ti_sysbios_knl_Swi_Params__init__S)
                  c3027420    00000020     sysbios.ae674 : BIOS.obj (.text:ti_sysbios_knl_Swi_disable__E)
                  c3027440    00000020                   : BIOS.obj (.text:ti_sysbios_knl_Swi_startup__E)
                  c3027460    00000020     dsp_pe674.oe674 (.text:ti_sysbios_knl_Task_Module_startup__E)
                  c3027480    00000020     dsp_pe674.oe674 (.text:ti_sysbios_knl_Task_Object__first__S)
                  c30274a0    00000020     dsp_pe674.oe674 (.text:ti_sysbios_knl_Task_Object__next__S)
                  c30274c0    00000020     dsp_pe674.oe674 (.text:ti_sysbios_knl_Task_Params__init__S)
                  c30274e0    00000020     dsp_pe674.oe674 (.text:ti_sysbios_knl_Task_SupportProxy_Module__startupDone__S)
                  c3027500    00000020     dsp_pe674.oe674 (.text:ti_sysbios_knl_Task_SupportProxy_checkStack__E)
                  c3027520    00000020     dsp_pe674.oe674 (.text:ti_sysbios_knl_Task_SupportProxy_getStackAlignment__E)
                  c3027540    00000020     dsp_pe674.oe674 (.text:ti_sysbios_knl_Task_SupportProxy_start__E)
                  c3027560    00000020     dsp_pe674.oe674 (.text:ti_sysbios_knl_Task_SupportProxy_swap__E)
                  c3027580    00000020     sysbios.ae674 : BIOS.obj (.text:ti_sysbios_knl_Task_disable__E)
                  c30275a0    00000020                   : BIOS.obj (.text:ti_sysbios_knl_Task_getPri__E)
                  c30275c0    00000020                   : BIOS.obj (.text:ti_sysbios_knl_Task_self__E)
                  c30275e0    00000020                   : BIOS.obj (.text:ti_sysbios_knl_Task_startup__E)
                  c3027600    00000020                   : BIOS.obj (.text:ti_sysbios_syncs_SyncSem_Instance_finalize__F)
                  c3027620    00000020     dsp_pe674.oe674 (.text:ti_sysbios_syncs_SyncSem_query__E)
                  c3027640    00000020     sysbios.ae674 : BIOS.obj (.text:ti_sysbios_syncs_SyncSem_query__F)
                  c3027660    00000020     dsp_pe674.oe674 (.text:ti_sysbios_syncs_SyncSem_signal__E)
                  c3027680    00000020     sysbios.ae674 : BIOS.obj (.text:ti_sysbios_syncs_SyncSem_signal__F)
                  c30276a0    00000020     dsp_pe674.oe674 (.text:ti_sysbios_syncs_SyncSem_wait__E)
                  c30276c0    00000020     dsp_pe674.oe674 (.text:ti_sysbios_timers_timer64_Timer_Module__startupDone__S)
                  c30276e0    00000020     dsp_pe674.oe674 (.text:ti_sysbios_timers_timer64_Timer_Module_startup__E)
                  c3027700    00000020     dsp_pe674.oe674 (.text:ti_sysbios_timers_timer64_Timer_Params__init__S)
                  c3027720    00000020     dsp_pe674.oe674 (.text:ti_sysbios_timers_timer64_Timer_TimerSupportProxy_enable__E)
                  c3027740    00000020     sysbios.ae674 : BIOS.obj (.text:ti_sysbios_timers_timer64_Timer_setNextTick__E)
                  c3027760    00000020                   : BIOS.obj (.text:ti_sysbios_xdcruntime_GateThreadSupport_Instance_finalize__F)
                  c3027780    00000020     dsp_pe674.oe674 (.text:ti_sysbios_xdcruntime_GateThreadSupport_enter__E)
                  c30277a0    00000020     sysbios.ae674 : BIOS.obj (.text:ti_sysbios_xdcruntime_GateThreadSupport_enter__F)
                  c30277c0    00000020     dsp_pe674.oe674 (.text:ti_sysbios_xdcruntime_GateThreadSupport_leave__E)
                  c30277e0    00000020     sysbios.ae674 : BIOS.obj (.text:ti_sysbios_xdcruntime_GateThreadSupport_leave__F)
                  c3027800    00000020     dsp_pe674.oe674 (.text:ti_sysbios_xdcruntime_GateThreadSupport_query__E)
                  c3027820    00000020     sysbios.ae674 : BIOS.obj (.text:ti_sysbios_xdcruntime_GateThreadSupport_query__F)
                  c3027840    00000020     dsp_pe674.oe674 (.text:xdc_runtime_Diags_setMask__E)
                  c3027860    00000020     dsp_pe674.oe674 (.text:xdc_runtime_Error_check__E)
                  c3027880    00000020     dsp_pe674.oe674 (.text:xdc_runtime_Error_init__E)
                  c30278a0    00000020     dsp_pe674.oe674 (.text:xdc_runtime_Error_print__E)
                  c30278c0    00000020     dsp_pe674.oe674 (.text:xdc_runtime_Error_raiseX__E)
                  c30278e0    00000020     dsp_pe674.oe674 (.text:xdc_runtime_GateNull_enter__E)
                  c3027900    00000020     ti.targets.rts6000.ae674 : GateNull.oe674 (.text:xdc_runtime_GateNull_enter__F)
                  c3027920    00000020     dsp_pe674.oe674 (.text:xdc_runtime_GateNull_leave__E)
                  c3027940    00000020     ti.targets.rts6000.ae674 : GateNull.oe674 (.text:xdc_runtime_GateNull_leave__F)
                  c3027960    00000020     dsp_pe674.oe674 (.text:xdc_runtime_GateNull_query__E)
                  c3027980    00000020     ti.targets.rts6000.ae674 : GateNull.oe674 (.text:xdc_runtime_GateNull_query__F)
                  c30279a0    00000020     dsp_pe674.oe674 (.text:xdc_runtime_Gate_enterSystem__E)
                  c30279c0    00000020     ti.targets.rts6000.ae674 : Gate.oe674 (.text:xdc_runtime_Gate_enterSystem__F)
                  c30279e0    00000020     dsp_pe674.oe674 (.text:xdc_runtime_Gate_leaveSystem__E)
                  c3027a00    00000020     ti.targets.rts6000.ae674 : Gate.oe674 (.text:xdc_runtime_Gate_leaveSystem__F)
                  c3027a20    00000020     dsp_pe674.oe674 (.text:xdc_runtime_IHeap_alloc)
                  c3027a40    00000020     dsp_pe674.oe674 (.text:xdc_runtime_IHeap_free)
                  c3027a60    00000020     dsp_pe674.oe674 (.text:xdc_runtime_LoggerBuf_Module_GateProxy_enter__E)
                  c3027a80    00000020     dsp_pe674.oe674 (.text:xdc_runtime_LoggerBuf_Module_GateProxy_leave__E)
                  c3027aa0    00000020     dsp_pe674.oe674 (.text:xdc_runtime_LoggerBuf_Module_startup__E)
                  c3027ac0    00000020     dsp_pe674.oe674 (.text:xdc_runtime_LoggerBuf_TimestampProxy_get64__E)
                  c3027ae0    00000020     dsp_pe674.oe674 (.text:xdc_runtime_LoggerBuf_disable__E)
                  c3027b00    00000020     ti.targets.rts6000.ae674 : LoggerBuf.oe674 (.text:xdc_runtime_LoggerBuf_disable__F)
                  c3027b20    00000020     dsp_pe674.oe674 (.text:xdc_runtime_LoggerBuf_enable__E)
                  c3027b40    00000020     ti.targets.rts6000.ae674 : LoggerBuf.oe674 (.text:xdc_runtime_LoggerBuf_enable__F)
                  c3027b60    00000020     dsp_pe674.oe674 (.text:xdc_runtime_LoggerBuf_getFilterLevel__E)
                  c3027b80    00000020     dsp_pe674.oe674 (.text:xdc_runtime_LoggerBuf_setFilterLevel__E)
                  c3027ba0    00000020     dsp_pe674.oe674 (.text:xdc_runtime_LoggerBuf_write0__E)
                  c3027bc0    00000020     dsp_pe674.oe674 (.text:xdc_runtime_LoggerBuf_write1__E)
                  c3027be0    00000020     ti.targets.rts6000.ae674 : LoggerBuf.oe674 (.text:xdc_runtime_LoggerBuf_write1__F)
                  c3027c00    00000020     dsp_pe674.oe674 (.text:xdc_runtime_LoggerBuf_write2__E)
                  c3027c20    00000020     ti.targets.rts6000.ae674 : LoggerBuf.oe674 (.text:xdc_runtime_LoggerBuf_write2__F)
                  c3027c40    00000020     dsp_pe674.oe674 (.text:xdc_runtime_LoggerBuf_write4__E)
                  c3027c60    00000020     dsp_pe674.oe674 (.text:xdc_runtime_Memory_HeapProxy_alloc__E)
                  c3027c80    00000020     dsp_pe674.oe674 (.text:xdc_runtime_Memory_HeapProxy_free__E)
                  c3027ca0    00000020     dsp_pe674.oe674 (.text:xdc_runtime_Memory_alloc__E)
                  c3027cc0    00000020     dsp_pe674.oe674 (.text:xdc_runtime_Memory_calloc__E)
                  c3027ce0    00000020     dsp_pe674.oe674 (.text:xdc_runtime_Memory_free__E)
                  c3027d00    00000020     dsp_pe674.oe674 (.text:xdc_runtime_Memory_getMaxDefaultTypeAlign__E)
                  c3027d20    00000020     ti.targets.rts6000.ae674 : Memory.oe674 (.text:xdc_runtime_Memory_getMaxDefaultTypeAlign__F)
                  c3027d40    00000020     dsp_pe674.oe674 (.text:xdc_runtime_Memory_valloc__E)
                  c3027d60    00000020     dsp_pe674.oe674 (.text:xdc_runtime_Startup_Module__startupDone__S)
                  c3027d80    00000020     dsp_pe674.oe674 (.text:xdc_runtime_Startup_exec__E)
                  c3027da0    00000020     dsp_pe674.oe674 (.text:xdc_runtime_Startup_exec__I)
                  c3027dc0    00000020     dsp_pe674.oe674 (.text:xdc_runtime_Startup_reset__I)
                  c3027de0    00000020     dsp_pe674.oe674 (.text:xdc_runtime_SysMin_Module_startup__E)
                  c3027e00    00000020     dsp_pe674.oe674 (.text:xdc_runtime_SysMin_abort__E)
                  c3027e20    00000020     dsp_pe674.oe674 (.text:xdc_runtime_SysMin_exit__E)
                  c3027e40    00000020     dsp_pe674.oe674 (.text:xdc_runtime_SysMin_putch__E)
                  c3027e60    00000020     dsp_pe674.oe674 (.text:xdc_runtime_SysMin_ready__E)
                  c3027e80    00000020     ti.targets.rts6000.ae674 : SysMin.oe674 (.text:xdc_runtime_SysMin_ready__F)
                  c3027ea0    00000020     dsp_pe674.oe674 (.text:xdc_runtime_System_Module_GateProxy_enter__E)
                  c3027ec0    00000020     dsp_pe674.oe674 (.text:xdc_runtime_System_Module_GateProxy_leave__E)
                  c3027ee0    00000020     dsp_pe674.oe674 (.text:xdc_runtime_System_Module_startup__E)
                  c3027f00    00000020     ti.targets.rts6000.ae674 : System.oe674 (.text:xdc_runtime_System_Module_startup__F)
                  c3027f20    00000020     dsp_pe674.oe674 (.text:xdc_runtime_System_SupportProxy_abort__E)
                  c3027f40    00000020     dsp_pe674.oe674 (.text:xdc_runtime_System_SupportProxy_exit__E)
                  c3027f60    00000020     dsp_pe674.oe674 (.text:xdc_runtime_System_SupportProxy_putch__E)
                  c3027f80    00000020     dsp_pe674.oe674 (.text:xdc_runtime_System_SupportProxy_ready__E)
                  c3027fa0    00000020     dsp_pe674.oe674 (.text:xdc_runtime_System_abort__E)
                  c3027fc0    00000020     dsp_pe674.oe674 (.text:xdc_runtime_System_atexit__E)
                  c3027fe0    00000020     dsp_pe674.oe674 (.text:xdc_runtime_System_exit__E)
                  c3028000    00000020     ti.targets.rts6000.ae674 : System.oe674 (.text:xdc_runtime_System_exit__F)
                  c3028020    00000020                              : System.oe674 (.text:xdc_runtime_System_lastFxn__I)
                  c3028040    00000020     dsp_pe674.oe674 (.text:xdc_runtime_System_vsnprintf__E)
                  c3028060    00000020     ti.targets.rts6000.ae674 : System.oe674 (.text:xdc_runtime_System_vsnprintf__F)
                  c3028080    00000020     dsp_pe674.oe674 (.text:xdc_runtime_Text_cordText__E)
                  c30280a0    00000020     dsp_pe674.oe674 (.text:xdc_runtime_Text_matchRope__E)
                  c30280c0    00000020     dsp_pe674.oe674 (.text:xdc_runtime_Text_putLab__E)
                  c30280e0    00000020     dsp_pe674.oe674 (.text:xdc_runtime_Text_putSite__E)
                  c3028100    00000020     dsp_pe674.oe674 (.text:xdc_runtime_Text_ropeText__E)
                  c3028120    00000020     dsp_pe674.oe674 (.text:xdc_runtime_Text_visitRope__I)
                  c3028140    00000020     dsp_pe674.oe674 (.text:xdc_runtime_knl_GateThread_Module__startupDone__S)
                  c3028160    00000020     dsp_pe674.oe674 (.text:xdc_runtime_knl_GateThread_Proxy_Object__create__S)
                  c3028180    00000020     dsp_pe674.oe674 (.text:xdc_runtime_knl_GateThread_Proxy_Object__delete__S)
                  c30281a0    00000020     dsp_pe674.oe674 (.text:xdc_runtime_knl_GateThread_Proxy_enter__E)
                  c30281c0    00000020     dsp_pe674.oe674 (.text:xdc_runtime_knl_GateThread_Proxy_leave__E)
                  c30281e0    00000020     dsp_pe674.oe674 (.text:xdc_runtime_knl_GateThread_Proxy_query__E)
                  c3028200    00000020     dsp_pe674.oe674 (.text:xdc_runtime_knl_GateThread_enter__E)
                  c3028220    00000020     ti.targets.rts6000.ae674 : GateThread.oe674 (.text:xdc_runtime_knl_GateThread_enter__F)
                  c3028240    00000020     dsp_pe674.oe674 (.text:xdc_runtime_knl_GateThread_leave__E)
                  c3028260    00000020     ti.targets.rts6000.ae674 : GateThread.oe674 (.text:xdc_runtime_knl_GateThread_leave__F)
                  c3028280    00000020     dsp_pe674.oe674 (.text:xdc_runtime_knl_GateThread_query__E)
                  c30282a0    00000020     ti.targets.rts6000.ae674 : GateThread.oe674 (.text:xdc_runtime_knl_GateThread_query__F)

.far       0    c30282c0    0000d3b8     UNINITIALIZED
                  c30282c0    0000a010     dsp_pe674.oe674 (.far)
                  c30322d0    00002020     sys.oe674 (.far)
                  c30342f0    00000ab0     fft.oe674 (.far)
                  c3034da0    00000800     dsp_pe674.oe674 (.far:taskStackSection)
                  c30355a0    0000007c     IPCServer.oe674 (.far)
                  c303561c    00000050     communicate.oe674 (.far)
                  c303566c    00000003     fa.oe674 (.far)
                  c303566f    00000001     --HOLE--
                  c3035670    00000008     rts6740_elf.lib : trgdrv.obj (.far)

.const     0    c3035678    000054b0     
                  c3035678    00002ad2     dsp_pe674.oe674 (.const:xdc_runtime_Text_charTab__A)
                  c303814a    00000683     sysbios.ae674 : BIOS.obj (.const:.string)
                  c30387cd    00000640     IPCServer.oe674 (.const:.string)
                  c3038e0d    00000375     fa.oe674 (.const:.string)
                  c3039182    0000022e     communicate.oe674 (.const:.string)
                  c30393b0    00000228     dsp.oe674 (.const:.string)
                  c30395d8    00000168     dsp_pe674.oe674 (.const:xdc_runtime_Text_nodeTab__A)
                  c3039740    000000f4     fft.oe674 (.const:.string)
                  c3039834    00000097     dsp_pe674.oe674 (.const:.string)
                  c30398cb    00000076     sys.oe674 (.const:.string)
                  c3039941    00000074     ad7606.oe674 (.const:.string)
                  c30399b5    00000001     --HOLE-- [fill = 0]
                  c30399b6    00000002     dsp_pe674.oe674 (.const:ti_sdo_ipc_GateMP_Module__id__C)
                  c30399b8    00000064     dsp_pe674.oe674 (.const:ti_sysbios_timers_timer64_Timer_Object__PARAMS__C)
                  c3039a1c    00000058     ti.targets.rts6000.ae674 : Error.oe674 (.const:.string)
                  c3039a74    00000051     collect.oe674 (.const:.string)
                  c3039ac5    00000001     --HOLE-- [fill = 0]
                  c3039ac6    00000002     dsp_pe674.oe674 (.const:ti_sdo_ipc_Ipc_generateSlaveDataForHost__C)
                  c3039ac8    00000040     ti.targets.rts6000.ae674 : Text.oe674 (.const:.string)
                  c3039b08    00000040     dsp_pe674.oe674 (.const:xdc_runtime_Startup_sfxnTab__A)
                  c3039b48    0000003c     dsp_pe674.oe674 (.const:ti_sysbios_knl_Task_Object__PARAMS__C)
                  c3039b84    0000003c     dsp_pe674.oe674 (.const:xdc_runtime_LoggerBuf_Module__FXNS__C)
                  c3039bc0    00000038     dsp_pe674.oe674 (.const:ti_sdo_ipc_heaps_HeapBufMP_Object__PARAMS__C)
                  c3039bf8    00000038     dsp_pe674.oe674 (.const:ti_sdo_ipc_notifyDrivers_NotifyDriverShm_Module__FXNS__C)
                  c3039c30    00000034     dsp_pe674.oe674 (.const:ti_sdo_ipc_GateMP_Object__PARAMS__C)
                  c3039c64    00000034     dsp_pe674.oe674 (.const:ti_sdo_ipc_notifyDrivers_NotifyDriverShm_Object__PARAMS__C)
                  c3039c98    00000030     dsp_pe674.oe674 (.const:ti_sdo_ipc_heaps_HeapMemMP_Object__PARAMS__C)
                  c3039cc8    00000030     dsp_pe674.oe674 (.const:ti_sysbios_family_c64p_Hwi_Object__PARAMS__C)
                  c3039cf8    0000002c     ti.targets.rts6000.ae674 : Startup.oe674 (.const:.string)
                  c3039d24    0000002c     dsp_pe674.oe674 (.const:ti_sdo_ipc_ListMP_Object__PARAMS__C)
                  c3039d50    0000002c     dsp_pe674.oe674 (.const:ti_sdo_ipc_gates_GateMPSupportNull_Module__FXNS__C)
                  c3039d7c    0000002c     dsp_pe674.oe674 (.const:ti_sdo_ipc_gates_GatePeterson_Module__FXNS__C)
                  c3039da8    0000002c     dsp_pe674.oe674 (.const:ti_sysbios_hal_Hwi_Object__PARAMS__C)
                  c3039dd4    00000028     dsp_pe674.oe674 (.const:ti_sdo_ipc_heaps_HeapBufMP_Module__FXNS__C)
                  c3039dfc    00000028     dsp_pe674.oe674 (.const:ti_sdo_ipc_heaps_HeapMemMP_Module__FXNS__C)
                  c3039e24    00000028     dsp_pe674.oe674 (.const:ti_sdo_ipc_nsremote_NameServerRemoteNotify_Module__FXNS__C)
                  c3039e4c    00000028     dsp_pe674.oe674 (.const:ti_sdo_ipc_transports_TransportShm_Module__FXNS__C)
                  c3039e74    00000028     dsp_pe674.oe674 (.const:ti_sdo_ipc_transports_TransportShm_Object__PARAMS__C)
                  c3039e9c    00000028     dsp_pe674.oe674 (.const:ti_sysbios_heaps_HeapMem_Module__FXNS__C)
                  c3039ec4    00000028     dsp_pe674.oe674 (.const:ti_sysbios_knl_Swi_Object__PARAMS__C)
                  c3039eec    00000028     dsp_pe674.oe674 (.const:xdc_runtime_LoggerBuf_Object__PARAMS__C)
                  c3039f14    00000024     dsp_pe674.oe674 (.const:ti_sdo_ipc_gates_GateMPSupportNull_Object__PARAMS__C)
                  c3039f38    00000024     dsp_pe674.oe674 (.const:ti_sdo_ipc_gates_GatePeterson_Object__PARAMS__C)
                  c3039f5c    00000024     dsp_pe674.oe674 (.const:ti_sysbios_gates_GateAll_Module__FXNS__C)
                  c3039f80    00000024     dsp_pe674.oe674 (.const:ti_sysbios_gates_GateHwi_Module__FXNS__C)
                  c3039fa4    00000024     dsp_pe674.oe674 (.const:ti_sysbios_gates_GateMutexPri_Module__FXNS__C)
                  c3039fc8    00000024     dsp_pe674.oe674 (.const:ti_sysbios_gates_GateMutex_Module__FXNS__C)
                  c3039fec    00000024     dsp_pe674.oe674 (.const:ti_sysbios_gates_GateSwi_Module__FXNS__C)
                  c303a010    00000024     dsp_pe674.oe674 (.const:ti_sysbios_heaps_HeapMem_Object__PARAMS__C)
                  c303a034    00000024     dsp_pe674.oe674 (.const:ti_sysbios_knl_Clock_Object__PARAMS__C)
                  c303a058    00000024     dsp_pe674.oe674 (.const:ti_sysbios_knl_Semaphore_Object__PARAMS__C)
                  c303a07c    00000024     dsp_pe674.oe674 (.const:ti_sysbios_syncs_SyncSem_Module__FXNS__C)
                  c303a0a0    00000024     dsp_pe674.oe674 (.const:xdc_runtime_GateNull_Module__FXNS__C)
                  c303a0c4    00000024     dsp_pe674.oe674 (.const:xdc_runtime_knl_GateThread_Module__FXNS__C)
                  c303a0e8    00000020     dsp_pe674.oe674 (.const:ti_sdo_ipc_GateMP_Object__DESC__C)
                  c303a108    00000020     dsp_pe674.oe674 (.const:ti_sdo_ipc_ListMP_Object__DESC__C)
                  c303a128    00000020     dsp_pe674.oe674 (.const:ti_sdo_ipc_MessageQ_Object__DESC__C)
                  c303a148    00000020     dsp_pe674.oe674 (.const:ti_sdo_ipc_MessageQ_Object__PARAMS__C)
                  c303a168    00000020     dsp_pe674.oe674 (.const:ti_sdo_ipc_Notify_Object__DESC__C)
                  c303a188    00000020     dsp_pe674.oe674 (.const:ti_sdo_ipc_gates_GateMPSupportNull_Object__DESC__C)
                  c303a1a8    00000020     dsp_pe674.oe674 (.const:ti_sdo_ipc_gates_GatePeterson_Object__DESC__C)
                  c303a1c8    00000020     dsp_pe674.oe674 (.const:ti_sdo_ipc_heaps_HeapBufMP_Object__DESC__C)
                  c303a1e8    00000020     dsp_pe674.oe674 (.const:ti_sdo_ipc_heaps_HeapMemMP_Object__DESC__C)
                  c303a208    00000020     dsp_pe674.oe674 (.const:ti_sdo_ipc_notifyDrivers_NotifyDriverShm_Object__DESC__C)
                  c303a228    00000020     dsp_pe674.oe674 (.const:ti_sdo_ipc_nsremote_NameServerRemoteNotify_Object__DESC__C)
                  c303a248    00000020     dsp_pe674.oe674 (.const:ti_sdo_ipc_nsremote_NameServerRemoteNotify_Object__PARAMS__C)
                  c303a268    00000020     dsp_pe674.oe674 (.const:ti_sdo_ipc_transports_TransportShm_Object__DESC__C)
                  c303a288    00000020     dsp_pe674.oe674 (.const:ti_sdo_utils_List_Object__DESC__C)
                  c303a2a8    00000020     dsp_pe674.oe674 (.const:ti_sysbios_family_c64p_Hwi_Object__DESC__C)
                  c303a2c8    00000020     dsp_pe674.oe674 (.const:ti_sysbios_gates_GateAll_Object__DESC__C)
                  c303a2e8    00000020     dsp_pe674.oe674 (.const:ti_sysbios_gates_GateHwi_Object__DESC__C)
                  c303a308    00000020     dsp_pe674.oe674 (.const:ti_sysbios_gates_GateMutexPri_Object__DESC__C)
                  c303a328    00000020     dsp_pe674.oe674 (.const:ti_sysbios_gates_GateMutex_Object__DESC__C)
                  c303a348    00000020     dsp_pe674.oe674 (.const:ti_sysbios_gates_GateSwi_Object__DESC__C)
                  c303a368    00000020     dsp_pe674.oe674 (.const:ti_sysbios_hal_Hwi_Object__DESC__C)
                  c303a388    00000020     dsp_pe674.oe674 (.const:ti_sysbios_heaps_HeapMem_Object__DESC__C)
                  c303a3a8    00000020     dsp_pe674.oe674 (.const:ti_sysbios_knl_Clock_Object__DESC__C)
                  c303a3c8    00000020     dsp_pe674.oe674 (.const:ti_sysbios_knl_Queue_Object__DESC__C)
                  c303a3e8    00000020     dsp_pe674.oe674 (.const:ti_sysbios_knl_Semaphore_Object__DESC__C)
                  c303a408    00000020     dsp_pe674.oe674 (.const:ti_sysbios_knl_Swi_Object__DESC__C)
                  c303a428    00000020     dsp_pe674.oe674 (.const:ti_sysbios_knl_Task_Object__DESC__C)
                  c303a448    00000020     dsp_pe674.oe674 (.const:ti_sysbios_syncs_SyncSem_Object__DESC__C)
                  c303a468    00000020     dsp_pe674.oe674 (.const:ti_sysbios_timers_timer64_Timer_Object__DESC__C)
                  c303a488    00000020     dsp_pe674.oe674 (.const:ti_sysbios_xdcruntime_GateThreadSupport_Object__DESC__C)
                  c303a4a8    00000020     dsp_pe674.oe674 (.const:xdc_runtime_GateNull_Object__DESC__C)
                  c303a4c8    00000020     dsp_pe674.oe674 (.const:xdc_runtime_LoggerBuf_Object__DESC__C)
                  c303a4e8    00000020     dsp_pe674.oe674 (.const:xdc_runtime_Startup_sfxnRts__A)
                  c303a508    00000020     dsp_pe674.oe674 (.const:xdc_runtime_knl_GateThread_Object__DESC__C)
                  c303a528    0000001c     dsp_pe674.oe674 (.const:ti_sysbios_syncs_SyncSem_Object__PARAMS__C)
                  c303a544    00000019     utils.lib : uartStdio.obj (.const:.string)
                  c303a55d    00000001     --HOLE-- [fill = 0]
                  c303a55e    00000002     dsp_pe674.oe674 (.const:ti_sdo_ipc_Ipc_sr0MemorySetup__C)
                  c303a560    00000018     dsp_pe674.oe674 (.const:ti_sdo_ipc_Notify_Object__PARAMS__C)
                  c303a578    00000018     dsp_pe674.oe674 (.const:ti_sdo_utils_List_Object__PARAMS__C)
                  c303a590    00000018     dsp_pe674.oe674 (.const:ti_sysbios_gates_GateAll_Object__PARAMS__C)
                  c303a5a8    00000018     dsp_pe674.oe674 (.const:ti_sysbios_gates_GateHwi_Object__PARAMS__C)
                  c303a5c0    00000018     dsp_pe674.oe674 (.const:ti_sysbios_gates_GateMutexPri_Object__PARAMS__C)
                  c303a5d8    00000018     dsp_pe674.oe674 (.const:ti_sysbios_gates_GateMutex_Object__PARAMS__C)
                  c303a5f0    00000018     dsp_pe674.oe674 (.const:ti_sysbios_gates_GateSwi_Object__PARAMS__C)
                  c303a608    00000018     dsp_pe674.oe674 (.const:ti_sysbios_knl_Queue_Object__PARAMS__C)
                  c303a620    00000018     dsp_pe674.oe674 (.const:ti_sysbios_knl_Task_hooks__A)
                  c303a638    00000018     dsp_pe674.oe674 (.const:ti_sysbios_xdcruntime_GateThreadSupport_Object__PARAMS__C)
                  c303a650    00000018     dsp_pe674.oe674 (.const:xdc_runtime_GateNull_Object__PARAMS__C)
                  c303a668    00000018     dsp_pe674.oe674 (.const:xdc_runtime_knl_GateThread_Object__PARAMS__C)
                  c303a680    00000011     IPCServer.oe674 (.const:.string:__func__$1)
                  c303a691    00000001     --HOLE-- [fill = 0]
                  c303a692    00000002     dsp_pe674.oe674 (.const:ti_sdo_ipc_ListMP_Module__id__C)
                  c303a694    00000004     ti.targets.rts6000.ae674 : Assert.oe674 (.const:.string)
                  c303a698    00000011     ad7606.oe674 (.const:.string:__func__$1)
                  c303a6a9    00000001     --HOLE-- [fill = 0]
                  c303a6aa    00000002     dsp_pe674.oe674 (.const:ti_sdo_ipc_MessageQ_Module__id__C)
                  c303a6ac    00000004     ti.targets.rts6000.ae674 : Diags.oe674 (.const:.string)
                  c303a6b0    00000011                              : System.oe674 (.const:digtohex)
                  c303a6c1    00000001     --HOLE-- [fill = 0]
                  c303a6c2    00000002     dsp_pe674.oe674 (.const:ti_sdo_ipc_Notify_numLines__C)
                  c303a6c4    00000004     dsp_pe674.oe674 (.const:ti_sdo_ipc_GateMP_E_gateUnavailable__C)
                  c303a6c8    00000010     IPCServer.oe674 (.const:.string:__func__$2)
                  c303a6d8    0000000f     fa.oe674 (.const:.string:__func__$6)
                  c303a6e7    00000001     --HOLE-- [fill = 0]
                  c303a6e8    0000000e     fa.oe674 (.const:.string:__func__$3)
                  c303a6f6    00000002     dsp_pe674.oe674 (.const:ti_sdo_ipc_SharedRegion_numEntries__C)
                  c303a6f8    0000000d     collect.oe674 (.const:.string:__func__$1)
                  c303a705    00000001     --HOLE-- [fill = 0]
                  c303a706    00000002     dsp_pe674.oe674 (.const:ti_sdo_ipc_SharedRegion_translate__C)
                  c303a708    0000000d     fft.oe674 (.const:.string:__func__$1)
                  c303a715    00000001     --HOLE-- [fill = 0]
                  c303a716    00000002     dsp_pe674.oe674 (.const:ti_sdo_ipc_family_da830_NotifySetup_useSecondLine__C)
                  c303a718    0000000d     IPCServer.oe674 (.const:.string:__func__$3)
                  c303a725    00000001     --HOLE-- [fill = 0]
                  c303a726    00000002     dsp_pe674.oe674 (.const:ti_sdo_ipc_gates_GatePeterson_Module__id__C)
                  c303a728    0000000d     IPCServer.oe674 (.const:.string:__func__$4)
                  c303a735    00000001     --HOLE-- [fill = 0]
                  c303a736    00000002     dsp_pe674.oe674 (.const:ti_sdo_ipc_heaps_HeapBufMP_Module__id__C)
                  c303a738    0000000d     IPCServer.oe674 (.const:.string:__func__$5)
                  c303a745    00000001     --HOLE-- [fill = 0]
                  c303a746    00000002     dsp_pe674.oe674 (.const:ti_sdo_ipc_heaps_HeapBufMP_trackAllocs__C)
                  c303a748    0000000c     ad7606.oe674 (.const:.string:__func__$2)
                  c303a754    00000004     dsp_pe674.oe674 (.const:ti_sdo_ipc_GateMP_E_localGate__C)
                  c303a758    0000000c     dsp_pe674.oe674 (.const:ti_sdo_ipc_Ipc_userFxns__A)
                  c303a764    0000000c     dsp_pe674.oe674 (.const:ti_sysbios_family_c64p_Cache_initSize__C)
                  c303a770    0000000b     fa.oe674 (.const:.string:__func__$16)
                  c303a77b    00000001     --HOLE-- [fill = 0]
                  c303a77c    00000004     dsp_pe674.oe674 (.const:ti_sdo_ipc_Ipc_E_internal__C)
                  c303a780    0000000b     fa.oe674 (.const:.string:__func__$17)
                  c303a78b    00000001     --HOLE-- [fill = 0]
                  c303a78c    00000004     dsp_pe674.oe674 (.const:ti_sdo_ipc_Ipc_E_nameFailed__C)
                  c303a790    0000000b     sys.oe674 (.const:.string:__func__$1)
                  c303a79b    00000001     --HOLE-- [fill = 0]
                  c303a79c    00000004     dsp_pe674.oe674 (.const:ti_sdo_ipc_Ipc_E_versionMismatch__C)
                  c303a7a0    0000000b     fft.oe674 (.const:.string:__func__$2)
                  c303a7ab    00000001     --HOLE-- [fill = 0]
                  c303a7ac    00000004     dsp_pe674.oe674 (.const:ti_sdo_ipc_Ipc_numUserFxns__C)
                  c303a7b0    0000000b     communicate.oe674 (.const:.string:__func__$3)
                  c303a7bb    00000001     --HOLE-- [fill = 0]
                  c303a7bc    00000004     dsp_pe674.oe674 (.const:ti_sdo_ipc_Ipc_procSync__C)
                  c303a7c0    0000000b     sys.oe674 (.const:.string:__func__$3)
                  c303a7cb    00000001     --HOLE-- [fill = 0]
                  c303a7cc    00000004     dsp_pe674.oe674 (.const:ti_sdo_ipc_Ipc_userFxns__C)
                  c303a7d0    0000000a     collect.oe674 (.const:.string:$P$T0$2)
                  c303a7da    00000002     dsp_pe674.oe674 (.const:ti_sdo_ipc_heaps_HeapMemMP_Module__id__C)
                  c303a7dc    00000004     dsp_pe674.oe674 (.const:ti_sdo_ipc_MessageQ_E_indexNotAvailable__C)
                  c303a7e0    0000000a     communicate.oe674 (.const:.string:__func__$1)
                  c303a7ea    00000002     dsp_pe674.oe674 (.const:ti_sdo_ipc_nsremote_NameServerRemoteNotify_Module__id__C)
                  c303a7ec    00000004     dsp_pe674.oe674 (.const:ti_sdo_ipc_MessageQ_E_maxReached__C)
                  c303a7f0    0000000a     dsp.oe674 (.const:.string:__func__$1)
                  c303a7fa    00000002     dsp_pe674.oe674 (.const:ti_sdo_ipc_transports_TransportShm_Module__id__C)
                  c303a7fc    00000004     dsp_pe674.oe674 (.const:ti_sdo_ipc_MessageQ_E_nameFailed__C)
                  c303a800    00000009     fa.oe674 (.const:.string:__func__$11)
                  c303a809    00000001     --HOLE-- [fill = 0]
                  c303a80a    00000002     dsp_pe674.oe674 (.const:ti_sdo_ipc_transports_TransportShm_notifyEventId__C)
                  c303a80c    00000004     dsp_pe674.oe674 (.const:ti_sdo_ipc_MessageQ_Instance_State_highList__O)
                  c303a810    00000009     fa.oe674 (.const:.string:__func__$1)
                  c303a819    00000001     --HOLE-- [fill = 0]
                  c303a81a    00000002     dsp_pe674.oe674 (.const:ti_sdo_utils_MultiProc_numProcessors__C)
                  c303a81c    00000004     dsp_pe674.oe674 (.const:ti_sdo_ipc_MessageQ_Instance_State_normalList__O)
                  c303a820    00000009     sys.oe674 (.const:.string:__func__$2)
                  c303a829    00000001     --HOLE-- [fill = 0]
                  c303a82a    00000002     dsp_pe674.oe674 (.const:ti_sdo_utils_MultiProc_numProcsInCluster__C)
                  c303a82c    00000004     dsp_pe674.oe674 (.const:ti_sdo_ipc_MessageQ_Object__count__C)
                  c303a830    00000009     fft.oe674 (.const:.string:__func__$3)
                  c303a839    00000001     --HOLE-- [fill = 0]
                  c303a83a    00000002     dsp_pe674.oe674 (.const:ti_sdo_utils_NameServer_Module__id__C)
                  c303a83c    00000004     dsp_pe674.oe674 (.const:ti_sdo_ipc_MessageQ_Object__heap__C)
                  c303a840    00000008     fa.oe674 (.const:.string:__func__$18)
                  c303a848    00000008     fa.oe674 (.const:.string:__func__$19)
                  c303a850    00000008     ti.targets.rts6000.ae674 : System.oe674 (.const:.string)
                  c303a858    00000008     dsp_pe674.oe674 (.const:ti_sdo_utils_MultiProc_nameList__A)
                  c303a860    00000008     dsp_pe674.oe674 (.const:ti_sysbios_knl_Idle_coreList__C)
                  c303a868    00000008     dsp_pe674.oe674 (.const:ti_sysbios_knl_Idle_funcList__C)
                  c303a870    00000008     dsp_pe674.oe674 (.const:ti_sysbios_knl_Task_hooks__C)
                  c303a878    00000008     dsp_pe674.oe674 (.const:xdc_runtime_Startup_firstFxns__A)
                  c303a880    00000008     dsp_pe674.oe674 (.const:xdc_runtime_Startup_firstFxns__C)
                  c303a888    00000008     dsp_pe674.oe674 (.const:xdc_runtime_Startup_lastFxns__C)
                  c303a890    00000004     dsp_pe674.oe674 (.const:ti_sdo_ipc_MessageQ_maxRuntimeEntries__C)
                  c303a894    00000004     dsp_pe674.oe674 (.const:ti_sdo_ipc_MessageQ_numReservedEntries__C)
                  c303a898    00000004     dsp_pe674.oe674 (.const:ti_sdo_ipc_Notify_Module__gateObj__C)
                  c303a89c    00000004     dsp_pe674.oe674 (.const:ti_sdo_ipc_Notify_Object__heap__C)
                  c303a8a0    00000004     dsp_pe674.oe674 (.const:ti_sdo_ipc_Notify_numEvents__C)
                  c303a8a4    00000004     dsp_pe674.oe674 (.const:ti_sdo_ipc_Notify_sendEventPollCount__C)
                  c303a8a8    00000004     dsp_pe674.oe674 (.const:ti_sdo_ipc_SharedRegion_INVALIDSRPTR__C)
                  c303a8ac    00000004     dsp_pe674.oe674 (.const:ti_sdo_ipc_SharedRegion_numOffsetBits__C)
                  c303a8b0    00000004     dsp_pe674.oe674 (.const:ti_sdo_ipc_SharedRegion_offsetMask__C)
                  c303a8b4    00000004     dsp_pe674.oe674 (.const:ti_sdo_ipc_family_da830_NotifySetup_armRecvIntId0__C)
                  c303a8b8    00000004     dsp_pe674.oe674 (.const:ti_sdo_ipc_family_da830_NotifySetup_armRecvIntId1__C)
                  c303a8bc    00000004     dsp_pe674.oe674 (.const:ti_sdo_ipc_family_da830_NotifySetup_dspIntVectId0__C)
                  c303a8c0    00000004     dsp_pe674.oe674 (.const:ti_sdo_ipc_family_da830_NotifySetup_dspIntVectId1__C)
                  c303a8c4    00000004     dsp_pe674.oe674 (.const:ti_sdo_ipc_family_da830_NotifySetup_dspRecvIntId0__C)
                  c303a8c8    00000004     dsp_pe674.oe674 (.const:ti_sdo_ipc_family_da830_NotifySetup_dspRecvIntId1__C)
                  c303a8cc    00000004     dsp_pe674.oe674 (.const:ti_sdo_ipc_gates_GatePeterson_E_gateRemotelyOpened__C)
                  c303a8d0    00000004     dsp_pe674.oe674 (.const:ti_sdo_ipc_heaps_HeapBufMP_E_alignTooLarge__C)
                  c303a8d4    00000004     dsp_pe674.oe674 (.const:ti_sdo_ipc_heaps_HeapBufMP_E_exactFail__C)
                  c303a8d8    00000004     dsp_pe674.oe674 (.const:ti_sdo_ipc_heaps_HeapBufMP_E_noBlocksLeft__C)
                  c303a8dc    00000004     dsp_pe674.oe674 (.const:ti_sdo_ipc_heaps_HeapBufMP_E_sizeTooLarge__C)
                  c303a8e0    00000004     dsp_pe674.oe674 (.const:ti_sdo_ipc_heaps_HeapMemMP_E_memory__C)
                  c303a8e4    00000004     dsp_pe674.oe674 (.const:ti_sdo_ipc_interfaces_IGateMPSupport_Interface__BASE__C)
                  c303a8e8    00000004     dsp_pe674.oe674 (.const:ti_sdo_ipc_interfaces_IMessageQTransport_Interface__BASE__C)
                  c303a8ec    00000004     dsp_pe674.oe674 (.const:ti_sdo_ipc_interfaces_INotifyDriver_Interface__BASE__C)
                  c303a8f0    00000004     dsp_pe674.oe674 (.const:ti_sdo_ipc_notifyDrivers_NotifyDriverShm_Object__heap__C)
                  c303a8f4    00000004     dsp_pe674.oe674 (.const:ti_sdo_ipc_nsremote_NameServerRemoteNotify_Instance_State_semMultiBlock__O)
                  c303a8f8    00000004     dsp_pe674.oe674 (.const:ti_sdo_ipc_nsremote_NameServerRemoteNotify_Instance_State_semRemoteWait__O)
                  c303a8fc    00000004     dsp_pe674.oe674 (.const:ti_sdo_ipc_nsremote_NameServerRemoteNotify_Instance_State_swiObj__O)
                  c303a900    00000004     dsp_pe674.oe674 (.const:ti_sdo_ipc_nsremote_NameServerRemoteNotify_notifyEventId__C)
                  c303a904    00000004     dsp_pe674.oe674 (.const:ti_sdo_ipc_nsremote_NameServerRemoteNotify_timeout__C)
                  c303a908    00000004     dsp_pe674.oe674 (.const:ti_sdo_ipc_transports_TransportShmSetup_priority__C)
                  c303a90c    00000004     dsp_pe674.oe674 (.const:ti_sdo_ipc_transports_TransportShm_Instance_State_swiObj__O)
                  c303a910    00000004     dsp_pe674.oe674 (.const:ti_sdo_utils_INameServerRemote_Interface__BASE__C)
                  c303a914    00000004     dsp_pe674.oe674 (.const:ti_sdo_utils_MultiProc_nameList__C)
                  c303a918    00000004     dsp_pe674.oe674 (.const:ti_sdo_utils_MultiProc_procIdList__A)
                  c303a91c    00000004     dsp_pe674.oe674 (.const:ti_sdo_utils_MultiProc_procIdList__C)
                  c303a920    00000004     dsp_pe674.oe674 (.const:ti_sdo_utils_NameServer_E_entryExists__C)
                  c303a924    00000004     dsp_pe674.oe674 (.const:ti_sdo_utils_NameServer_E_maxReached__C)
                  c303a928    00000004     dsp_pe674.oe674 (.const:ti_sdo_utils_NameServer_Instance_State_freeList__O)
                  c303a92c    00000004     dsp_pe674.oe674 (.const:ti_sdo_utils_NameServer_Instance_State_nameList__O)
                  c303a930    00000004     dsp_pe674.oe674 (.const:ti_sdo_utils_NameServer_Object__count__C)
                  c303a934    00000004     dsp_pe674.oe674 (.const:ti_sysbios_BIOS_installedErrorHook__C)
                  c303a938    00000004     dsp_pe674.oe674 (.const:ti_sysbios_family_c62_TaskSupport_stackAlignment__C)
                  c303a93c    00000004     dsp_pe674.oe674 (.const:ti_sysbios_family_c64p_Cache_EMIFA_BASE__C)
                  c303a940    00000004     dsp_pe674.oe674 (.const:ti_sysbios_family_c64p_Cache_EMIFA_CFG__C)
                  c303a944    00000004     dsp_pe674.oe674 (.const:ti_sysbios_family_c64p_Cache_EMIFA_LENGTH__C)
                  c303a948    00000004     dsp_pe674.oe674 (.const:ti_sysbios_family_c64p_Cache_EMIFB_BASE__C)
                  c303a94c    00000004     dsp_pe674.oe674 (.const:ti_sysbios_family_c64p_Cache_EMIFB_CFG__C)
                  c303a950    00000004     dsp_pe674.oe674 (.const:ti_sysbios_family_c64p_Cache_EMIFB_LENGTH__C)
                  c303a954    00000004     dsp_pe674.oe674 (.const:ti_sysbios_family_c64p_Cache_EMIFC_BASE__C)
                  c303a958    00000004     dsp_pe674.oe674 (.const:ti_sysbios_family_c64p_Cache_EMIFC_CFG__C)
                  c303a95c    00000004     dsp_pe674.oe674 (.const:ti_sysbios_family_c64p_Cache_EMIFC_LENGTH__C)
                  c303a960    00000004     dsp_pe674.oe674 (.const:ti_sysbios_family_c64p_Cache_MAR0_31__C)
                  c303a964    00000004     dsp_pe674.oe674 (.const:ti_sysbios_family_c64p_Cache_MAR128_159__C)
                  c303a968    00000004     dsp_pe674.oe674 (.const:ti_sysbios_family_c64p_Cache_MAR160_191__C)
                  c303a96c    00000004     dsp_pe674.oe674 (.const:ti_sysbios_family_c64p_Cache_MAR192_223__C)
                  c303a970    00000004     dsp_pe674.oe674 (.const:ti_sysbios_family_c64p_Cache_MAR224_255__C)
                  c303a974    00000004     dsp_pe674.oe674 (.const:ti_sysbios_family_c64p_Cache_MAR32_63__C)
                  c303a978    00000004     dsp_pe674.oe674 (.const:ti_sysbios_family_c64p_Cache_MAR64_95__C)
                  c303a97c    00000004     dsp_pe674.oe674 (.const:ti_sysbios_family_c64p_Cache_MAR96_127__C)
                  c303a980    00000004     dsp_pe674.oe674 (.const:ti_sysbios_family_c64p_Exception_E_exceptionMax__C)
                  c303a984    00000004     dsp_pe674.oe674 (.const:ti_sysbios_family_c64p_Exception_E_exceptionMin__C)
                  c303a988    00000004     dsp_pe674.oe674 (.const:ti_sysbios_family_c64p_Exception_exceptionHook__C)
                  c303a98c    00000004     dsp_pe674.oe674 (.const:ti_sysbios_family_c64p_Exception_externalHook__C)
                  c303a990    00000004     dsp_pe674.oe674 (.const:ti_sysbios_family_c64p_Exception_internalHook__C)
                  c303a994    00000004     dsp_pe674.oe674 (.const:ti_sysbios_family_c64p_Exception_nmiHook__C)
                  c303a998    00000004     dsp_pe674.oe674 (.const:ti_sysbios_family_c64p_Hwi_E_alreadyDefined__C)
                  c303a99c    00000004     dsp_pe674.oe674 (.const:ti_sysbios_family_c64p_Hwi_E_handleNotFound__C)
                  c303a9a0    00000004     dsp_pe674.oe674 (.const:ti_sysbios_gates_GateMutexPri_Instance_State_pendQ__O)
                  c303a9a4    00000004     dsp_pe674.oe674 (.const:ti_sysbios_gates_GateMutex_Instance_State_sem__O)
                  c303a9a8    00000004     dsp_pe674.oe674 (.const:ti_sysbios_hal_Hwi_E_stackOverflow__C)
                  c303a9ac    00000004     dsp_pe674.oe674 (.const:ti_sysbios_heaps_HeapMem_E_memory__C)
                  c303a9b0    00000004     dsp_pe674.oe674 (.const:ti_sysbios_heaps_HeapMem_Module__gateObj__C)
                  c303a9b4    00000004     dsp_pe674.oe674 (.const:ti_sysbios_heaps_HeapMem_Object__count__C)
                  c303a9b8    00000004     dsp_pe674.oe674 (.const:ti_sysbios_heaps_HeapMem_reqAlign__C)
                  c303a9bc    00000004     dsp_pe674.oe674 (.const:ti_sysbios_knl_Clock_Module_State_clockQ__O)
                  c303a9c0    00000004     dsp_pe674.oe674 (.const:ti_sysbios_knl_Clock_tickMode__C)
                  c303a9c4    00000004     dsp_pe674.oe674 (.const:ti_sysbios_knl_Clock_tickPeriod__C)
                  c303a9c8    00000004     dsp_pe674.oe674 (.const:ti_sysbios_knl_Clock_tickSource__C)
                  c303a9cc    00000004     dsp_pe674.oe674 (.const:ti_sysbios_knl_Semaphore_Instance_State_pendQ__O)
                  c303a9d0    00000004     dsp_pe674.oe674 (.const:ti_sysbios_knl_Idle_coreList__A)
                  c303a9d4    00000004     dsp_pe674.oe674 (.const:ti_sysbios_knl_Swi_Object__count__C)
                  c303a9d8    00000004     dsp_pe674.oe674 (.const:ti_sysbios_knl_Idle_funcList__A)
                  c303a9dc    00000004     dsp_pe674.oe674 (.const:ti_sysbios_knl_Swi_numPriorities__C)
                  c303a9e0    00000004     dsp_pe674.oe674 (.const:ti_sysbios_knl_Task_E_deleteNotAllowed__C)
                  c303a9e4    00000004     dsp_pe674.oe674 (.const:ti_sysbios_knl_Task_E_spOutOfBounds__C)
                  c303a9e8    00000004     dsp_pe674.oe674 (.const:ti_sysbios_knl_Task_E_stackOverflow__C)
                  c303a9ec    00000004     dsp_pe674.oe674 (.const:ti_sysbios_knl_Task_Module_State_inactiveQ__O)
                  c303a9f0    00000004     dsp_pe674.oe674 (.const:ti_sysbios_knl_Task_Module_State_terminatedQ__O)
                  c303a9f4    00000004     dsp_pe674.oe674 (.const:ti_sysbios_knl_Task_Object__count__C)
                  c303a9f8    00000004     dsp_pe674.oe674 (.const:ti_sysbios_knl_Task_Object__heap__C)
                  c303a9fc    00000004     dsp_pe674.oe674 (.const:ti_sysbios_knl_Task_allBlockedFunc__C)
                  c303aa00    00000004     dsp_pe674.oe674 (.const:ti_sysbios_knl_Task_defaultStackHeap__C)
                  c303aa04    00000004     dsp_pe674.oe674 (.const:ti_sysbios_knl_Task_defaultStackSize__C)
                  c303aa08    00000004     dsp_pe674.oe674 (.const:ti_sysbios_knl_Task_numConstructedTasks__C)
                  c303aa0c    00000004     dsp_pe674.oe674 (.const:ti_sysbios_timers_timer64_Timer_E_cannotSupport__C)
                  c303aa10    00000004     dsp_pe674.oe674 (.const:ti_sysbios_timers_timer64_Timer_E_invalidTimer__C)
                  c303aa14    00000004     dsp_pe674.oe674 (.const:ti_sysbios_timers_timer64_Timer_E_notAvailable__C)
                  c303aa18    00000004     dsp_pe674.oe674 (.const:ti_sysbios_timers_timer64_Timer_anyMask__C)
                  c303aa1c    00000004     dsp_pe674.oe674 (.const:ti_sysbios_timers_timer64_Timer_defaultHalf__C)
                  c303aa20    00000004     dsp_pe674.oe674 (.const:ti_sysbios_timers_timer64_Timer_freqDivisor__C)
                  c303aa24    00000004     dsp_pe674.oe674 (.const:ti_sysbios_timers_timer64_Timer_numLocalTimers__C)
                  c303aa28    00000004     dsp_pe674.oe674 (.const:ti_sysbios_timers_timer64_Timer_numTimerDevices__C)
                  c303aa2c    00000004     dsp_pe674.oe674 (.const:ti_sysbios_xdcruntime_GateThreadSupport_Instance_State_gate__O)
                  c303aa30    00000004     dsp_pe674.oe674 (.const:xdc_runtime_Assert_E_assertFailed__C)
                  c303aa34    00000004     dsp_pe674.oe674 (.const:xdc_runtime_Core_A_initializedParams__C)
                  c303aa38    00000004     dsp_pe674.oe674 (.const:xdc_runtime_Core_Module__diagsEnabled__C)
                  c303aa3c    00000004     dsp_pe674.oe674 (.const:xdc_runtime_Core_Module__diagsIncluded__C)
                  c303aa40    00000004     dsp_pe674.oe674 (.const:xdc_runtime_Core_Module__diagsMask__C)
                  c303aa44    00000004     dsp_pe674.oe674 (.const:xdc_runtime_Diags_dictBase__C)
                  c303aa48    00000004     dsp_pe674.oe674 (.const:xdc_runtime_Error_E_memory__C)
                  c303aa4c    00000004     dsp_pe674.oe674 (.const:xdc_runtime_Error_Module__diagsEnabled__C)
                  c303aa50    00000004     dsp_pe674.oe674 (.const:xdc_runtime_Error_Module__diagsIncluded__C)
                  c303aa54    00000004     dsp_pe674.oe674 (.const:xdc_runtime_Error_Module__diagsMask__C)
                  c303aa58    00000004     dsp_pe674.oe674 (.const:xdc_runtime_Error_Module__loggerFxn8__C)
                  c303aa5c    00000004     dsp_pe674.oe674 (.const:xdc_runtime_Error_Module__loggerObj__C)
                  c303aa60    00000004     dsp_pe674.oe674 (.const:xdc_runtime_Error_policy__C)
                  c303aa64    00000004     dsp_pe674.oe674 (.const:xdc_runtime_Error_raiseHook__C)
                  c303aa68    00000004     dsp_pe674.oe674 (.const:xdc_runtime_IFilterLogger_Interface__BASE__C)
                  c303aa6c    00000004     dsp_pe674.oe674 (.const:xdc_runtime_IGateProvider_Interface__BASE__C)
                  c303aa70    00000004     dsp_pe674.oe674 (.const:xdc_runtime_IHeap_Interface__BASE__C)
                  c303aa74    00000004     dsp_pe674.oe674 (.const:xdc_runtime_ILogger_Interface__BASE__C)
                  c303aa78    00000004     dsp_pe674.oe674 (.const:xdc_runtime_IModule_Interface__BASE__C)
                  c303aa7c    00000004     dsp_pe674.oe674 (.const:xdc_runtime_Log_L_error__C)
                  c303aa80    00000004     dsp_pe674.oe674 (.const:xdc_runtime_LoggerBuf_E_badLevel__C)
                  c303aa84    00000004     dsp_pe674.oe674 (.const:xdc_runtime_LoggerBuf_Module__gateObj__C)
                  c303aa88    00000004     dsp_pe674.oe674 (.const:xdc_runtime_LoggerBuf_Object__count__C)
                  c303aa8c    00000004     dsp_pe674.oe674 (.const:xdc_runtime_LoggerBuf_statusLogger__C)
                  c303aa90    00000004     dsp_pe674.oe674 (.const:xdc_runtime_Memory_defaultHeapInstance__C)
                  c303aa94    00000004     dsp_pe674.oe674 (.const:xdc_runtime_Registry_Module__diagsEnabled__C)
                  c303aa98    00000004     dsp_pe674.oe674 (.const:xdc_runtime_Registry_Module__diagsIncluded__C)
                  c303aa9c    00000004     dsp_pe674.oe674 (.const:xdc_runtime_Registry_Module__diagsMask__C)
                  c303aaa0    00000004     dsp_pe674.oe674 (.const:xdc_runtime_Registry_Module__loggerFxn1__C)
                  c303aaa4    00000004     dsp_pe674.oe674 (.const:xdc_runtime_Registry_Module__loggerFxn2__C)
                  c303aaa8    00000004     dsp_pe674.oe674 (.const:xdc_runtime_Registry_Module__loggerFxn4__C)
                  c303aaac    00000004     dsp_pe674.oe674 (.const:xdc_runtime_Registry_Module__loggerObj__C)
                  c303aab0    00000004     dsp_pe674.oe674 (.const:xdc_runtime_Startup_execImpl__C)
                  c303aab4    00000004     dsp_pe674.oe674 (.const:xdc_runtime_Startup_maxPasses__C)
                  c303aab8    00000004     dsp_pe674.oe674 (.const:xdc_runtime_Startup_lastFxns__A)
                  c303aabc    00000004     dsp_pe674.oe674 (.const:xdc_runtime_Startup_sfxnRts__C)
                  c303aac0    00000004     dsp_pe674.oe674 (.const:xdc_runtime_Startup_sfxnTab__C)
                  c303aac4    00000004     dsp_pe674.oe674 (.const:xdc_runtime_SysMin_bufSize__C)
                  c303aac8    00000004     dsp_pe674.oe674 (.const:xdc_runtime_SysMin_outputFunc__C)
                  c303aacc    00000004     dsp_pe674.oe674 (.const:xdc_runtime_System_Module__gateObj__C)
                  c303aad0    00000004     dsp_pe674.oe674 (.const:xdc_runtime_System_extendFxn__C)
                  c303aad4    00000004     dsp_pe674.oe674 (.const:xdc_runtime_System_maxAtexitHandlers__C)
                  c303aad8    00000004     dsp_pe674.oe674 (.const:xdc_runtime_Text_charTab__C)
                  c303aadc    00000004     dsp_pe674.oe674 (.const:xdc_runtime_Text_nameEmpty__C)
                  c303aae0    00000004     dsp_pe674.oe674 (.const:xdc_runtime_Text_nameStatic__C)
                  c303aae4    00000004     dsp_pe674.oe674 (.const:xdc_runtime_Text_nameUnknown__C)
                  c303aae8    00000004     dsp_pe674.oe674 (.const:xdc_runtime_Text_nodeTab__C)
                  c303aaec    00000004     dsp_pe674.oe674 (.const:xdc_runtime_Text_visitRopeFxn__C)
                  c303aaf0    00000004     dsp_pe674.oe674 (.const:xdc_runtime_knl_ISync_Interface__BASE__C)
                  c303aaf4    00000002     dsp_pe674.oe674 (.const:ti_sdo_utils_NameServer_singleProcessor__C)
                  c303aaf6    00000002     dsp_pe674.oe674 (.const:ti_sysbios_family_c64p_Exception_Module__id__C)
                  c303aaf8    00000002     dsp_pe674.oe674 (.const:ti_sysbios_family_c64p_Exception_enableExternalMPC__C)
                  c303aafa    00000002     dsp_pe674.oe674 (.const:ti_sysbios_family_c64p_Exception_enablePrint__C)
                  c303aafc    00000002     dsp_pe674.oe674 (.const:ti_sysbios_family_c64p_Exception_useInternalBuffer__C)
                  c303aafe    00000002     dsp_pe674.oe674 (.const:ti_sysbios_family_c64p_Hwi_Module__id__C)
                  c303ab00    00000002     dsp_pe674.oe674 (.const:ti_sysbios_hal_Hwi_Module__id__C)
                  c303ab02    00000002     dsp_pe674.oe674 (.const:ti_sysbios_heaps_HeapMem_Module__id__C)
                  c303ab04    00000002     dsp_pe674.oe674 (.const:ti_sysbios_knl_Task_Module__id__C)
                  c303ab06    00000002     dsp_pe674.oe674 (.const:ti_sysbios_knl_Task_deleteTerminatedTasks__C)
                  c303ab08    00000002     dsp_pe674.oe674 (.const:ti_sysbios_knl_Task_initStackFlag__C)
                  c303ab0a    00000002     dsp_pe674.oe674 (.const:ti_sysbios_timers_timer64_Timer_Module__id__C)
                  c303ab0c    00000002     dsp_pe674.oe674 (.const:ti_sysbios_timers_timer64_Timer_startupNeeded__C)
                  c303ab0e    00000002     dsp_pe674.oe674 (.const:xdc_runtime_Core_Module__id__C)
                  c303ab10    00000002     dsp_pe674.oe674 (.const:xdc_runtime_Diags_setMaskEnabled__C)
                  c303ab12    00000002     dsp_pe674.oe674 (.const:xdc_runtime_Error_Module__loggerDefined__C)
                  c303ab14    00000002     dsp_pe674.oe674 (.const:xdc_runtime_Error_maxDepth__C)
                  c303ab16    00000002     dsp_pe674.oe674 (.const:xdc_runtime_LoggerBuf_Module__id__C)
                  c303ab18    00000002     dsp_pe674.oe674 (.const:xdc_runtime_LoggerBuf_filterByLevel__C)
                  c303ab1a    00000002     dsp_pe674.oe674 (.const:xdc_runtime_Memory_Module__id__C)
                  c303ab1c    00000002     dsp_pe674.oe674 (.const:xdc_runtime_Registry_Module__loggerDefined__C)
                  c303ab1e    00000002     dsp_pe674.oe674 (.const:xdc_runtime_SysMin_flushAtExit__C)
                  c303ab20    00000002     dsp_pe674.oe674 (.const:xdc_runtime_Text_charCnt__C)
                  c303ab22    00000002     dsp_pe674.oe674 (.const:xdc_runtime_Text_isLoaded__C)
                  c303ab24    00000002     dsp_pe674.oe674 (.const:xdc_runtime_Text_registryModsLastId__C)
                  c303ab26    00000002     dsp_pe674.oe674 (.const:xdc_runtime_Text_unnamedModsLastId__C)

.fardata   0    c303ab28    0000163b     
                  c303ab28    00000800     dsp_pe674.oe674 (.fardata:ti_sdo_ipc_GateMP_Module_State_0_remoteSystemGates__A)
                  c303b328    00000404     dsp_pe674.oe674 (.fardata)
                  c303b72c    00000004     rts6740_elf.lib : dtor_list.obj (.fardata)
                  c303b730    00000200     fft.oe674 (.fardata:Cw)
                  c303b930    000001a0     dsp_pe674.oe674 (.fardata:xdc_runtime_Diags_dictElems)
                  c303bad0    00000118     dsp_pe674.oe674 (.fardata:ti_sdo_utils_NameServer_Object__table__V)
                  c303bbe8    00000090     dsp_pe674.oe674 (.fardata:ti_sdo_ipc_SharedRegion_Module_State_0_regions__A)
                  c303bc78    00000080     dsp_pe674.oe674 (.fardata:ti_sysbios_knl_Swi_Module_State_0_readyQ__A)
                  c303bcf8    00000080     dsp_pe674.oe674 (.fardata:ti_sysbios_knl_Task_Module_State_0_readyQ__A)
                  c303bd78    00000060     dsp_pe674.oe674 (.fardata:ti_sysbios_timers_timer64_Timer_Module_State_0_device__A)
                  c303bdd8    0000004c     dsp_pe674.oe674 (.fardata:ti_sysbios_knl_Task_Object__table__V)
                  c303be24    00000004     rts6740_elf.lib : errno.obj (.fardata)
                  c303be28    0000004c     dsp_pe674.oe674 (.fardata:ti_sysbios_timers_timer64_Timer_Object__table__V)
                  c303be74    00000004     --HOLE-- [fill = 0]
                  c303be78    00000040     fft.oe674 (.fardata:brev)
                  c303beb8    00000040     dsp_pe674.oe674 (.fardata:ti_sysbios_gates_GateMutex_Object__table__V)
                  c303bef8    00000030     dsp_pe674.oe674 (.fardata:ti_sysbios_knl_Swi_Object__table__V)
                  c303bf28    00000028     dsp_pe674.oe674 (.fardata:ti_sdo_ipc_Ipc_Module_State_0_procEntry__A)
                  c303bf50    00000024     dsp_pe674.oe674 (.fardata:xdc_runtime_LoggerBuf_Object__table__V)
                  c303bf74    00000004     --HOLE-- [fill = 0]
                  c303bf78    00000020     dsp_pe674.oe674 (.fardata:ti_sdo_ipc_MessageQ_Module_State_0_heaps__A)
                  c303bf98    00000020     dsp_pe674.oe674 (.fardata:ti_sysbios_timers_timer64_Timer_Module_State_0_gctrl__A)
                  c303bfb8    00000020     dsp_pe674.oe674 (.fardata:ti_sysbios_timers_timer64_Timer_Module_State_0_handles__A)
                  c303bfd8    00000020     dsp_pe674.oe674 (.fardata:ti_sysbios_timers_timer64_Timer_Module_State_0_intFreqs__A)
                  c303bff8    00000020     dsp_pe674.oe674 (.fardata:xdc_runtime_System_Module_State_0_atexitHandlers__A)
                  c303c018    00000018     dsp_pe674.oe674 (.fardata:ti_sysbios_family_c64p_Hwi_Object__table__V)
                  c303c030    00000018     dsp_pe674.oe674 (.fardata:ti_sysbios_gates_GateMutexPri_Object__table__V)
                  c303c048    00000018     dsp_pe674.oe674 (.fardata:ti_sysbios_heaps_HeapMem_Object__table__V)
                  c303c060    00000010     communicate.oe674 (.fardata:findindex)
                  c303c070    00000010     dsp_pe674.oe674 (.fardata:ti_sdo_ipc_MessageQ_Module_State_0_transports__A)
                  c303c080    00000010     dsp_pe674.oe674 (.fardata:ti_sysbios_gates_GateAll_Object__table__V)
                  c303c090    0000000c     fa.oe674 (.fardata:GLRECOVERtimes$10)
                  c303c09c    00000004     --HOLE-- [fill = 0]
                  c303c0a0    0000000c     fa.oe674 (.fardata:GLtimes$9)
                  c303c0ac    00000004     --HOLE-- [fill = 0]
                  c303c0b0    0000000c     fa.oe674 (.fardata:LXGLRECOVERtimes$15)
                  c303c0bc    00000004     --HOLE-- [fill = 0]
                  c303c0c0    0000000c     fa.oe674 (.fardata:LXGLtimes$14)
                  c303c0cc    0000000c     rts6740_elf.lib : exit.obj (.fardata)
                  c303c0d8    0000000c     dsp_pe674.oe674 (.fardata:ti_sysbios_gates_GateSwi_Object__table__V)
                  c303c0e4    00000008     rts6740_elf.lib : _lock.obj (.fardata)
                  c303c0ec    00000004     --HOLE-- [fill = 0]
                  c303c0f0    00000008     dsp_pe674.oe674 (.fardata:ti_sdo_ipc_Notify_Module_State_0_notifyHandles__A)
                  c303c0f8    00000008     dsp_pe674.oe674 (.fardata:ti_sdo_ipc_transports_TransportShmSetup_Module_State_0_handles__A)
                  c303c100    00000008     dsp_pe674.oe674 (.fardata:ti_sysbios_family_c64p_primus_TimerSupport_Module_State_0_suspSrc__A)
                  c303c108    00000008     dsp_pe674.oe674 (.fardata:ti_sysbios_hal_Hwi_Object__table__V)
                  c303c110    00000008     dsp_pe674.oe674 (.fardata:ti_sysbios_hal_Timer_Object__table__V)
                  c303c118    00000004     dsp_pe674.oe674 (.fardata:ti_sdo_ipc_GateMP_Module_State_0_remoteCustom2Gates__A)
                  c303c11c    00000004     --HOLE-- [fill = 0]
                  c303c120    00000004     dsp_pe674.oe674 (.fardata:ti_sdo_ipc_Notify_Module_State_0_notifyHandles_0__A)
                  c303c124    00000004     --HOLE-- [fill = 0]
                  c303c128    00000004     dsp_pe674.oe674 (.fardata:ti_sdo_ipc_Notify_Module_State_0_notifyHandles_1__A)
                  c303c12c    00000004     --HOLE-- [fill = 0]
                  c303c130    00000004     dsp_pe674.oe674 (.fardata:ti_sysbios_gates_GateHwi_Object__table__V)
                  c303c134    00000004     --HOLE-- [fill = 0]
                  c303c138    00000004     dsp_pe674.oe674 (.fardata:ti_sysbios_knl_Task_Module_State_0_idleTask__A)
                  c303c13c    00000004     --HOLE-- [fill = 0]
                  c303c140    00000004     dsp_pe674.oe674 (.fardata:xdc_runtime_GateNull_Object__table__V)
                  c303c144    00000004     --HOLE-- [fill = 0]
                  c303c148    00000003     fa.oe674 (.fardata:GLflag$7)
                  c303c14b    00000005     --HOLE-- [fill = 0]
                  c303c150    00000003     fa.oe674 (.fardata:GLstatus$8)
                  c303c153    00000005     --HOLE-- [fill = 0]
                  c303c158    00000003     fa.oe674 (.fardata:LXGLflag$12)
                  c303c15b    00000005     --HOLE-- [fill = 0]
                  c303c160    00000003     fa.oe674 (.fardata:LXGLstatus$13)

.stack     0    c303c168    00001000     UNINITIALIZED
                  c303c168    00000008     boot.ae674 : boot.oe674 (.stack)
                  c303c170    00000ff8     --HOLE--

.switch    0    c303d168    00000180     
                  c303d168    00000030     drivers.lib : emifa.obj (.switch:EMIFANANDEccValGet)
                  c303d198    00000024     utils.lib : uartStdio.obj (.switch:UARTprintf)
                  c303d1bc    00000018     communicate.oe674 (.switch:DigCmdout)
                  c303d1d4    00000014     led.oe674 (.switch:YK_SendOut)
                  c303d1e8    00000010     drivers.lib : emifa.obj (.switch:EMIFAAsyncDevDataBusWidthSelect)
                  c303d1f8    00000010                 : emifa.obj (.switch:EMIFAAsyncDevOpModeSelect)
                  c303d208    00000010                 : emifa.obj (.switch:EMIFACSWaitPinSelect)
                  c303d218    00000010                 : emifa.obj (.switch:EMIFAExtendedWaitConfig)
                  c303d228    00000010                 : emifa.obj (.switch:EMIFANAND4BitECCSelect)
                  c303d238    00000010                 : emifa.obj (.switch:EMIFANAND4BitEccErrAddrGet)
                  c303d248    00000010                 : emifa.obj (.switch:EMIFANAND4BitEccErrValGet)
                  c303d258    00000010                 : emifa.obj (.switch:EMIFANANDCSSet)
                  c303d268    00000010                 : emifa.obj (.switch:EMIFANANDECCStart)
                  c303d278    00000010                 : emifa.obj (.switch:EMIFANORPageAccessDelaySet)
                  c303d288    00000010                 : emifa.obj (.switch:EMIFANORPageModeConfig)
                  c303d298    00000010                 : emifa.obj (.switch:EMIFANORPageSizeSet)
                  c303d2a8    00000010                 : emifa.obj (.switch:EMIFAWaitTimingConfig)
                  c303d2b8    00000010     fa.oe674 (.switch:FA_Task)
                  c303d2c8    00000010     drivers.lib : gpio.obj (.switch:GPIOIntTypeSet)
                  c303d2d8    00000010     ipc.ae674 : Ipc.obj (.switch:ti_sdo_ipc_GateMP_Instance_finalize__F)

.args      0    c303d2e8    00000064     
                  c303d2e8    00000064     --HOLE-- [fill = 0]

.bss       0    c303d34c    00000014     UNINITIALIZED
                  c303d34c    0000000c     sys.oe674 (.bss)
                  c303d358    00000008     fft.oe674 (.bss)

.neardata 
*          0    c303d360    00000028     
                  c303d360    0000000c     sys.oe674 (.neardata)
                  c303d36c    00000008     collect.oe674 (.neardata)
                  c303d374    00000008     dsp_pe674.oe674 (.neardata)
                  c303d37c    00000008     fa.oe674 (.neardata)
                  c303d384    00000004     IPCServer.oe674 (.neardata)

.rodata    0    c303d388    00000000     UNINITIALIZED

.vecs      0    c303d400    00000200     
                  c303d400    00000200     dsp_pe674.oe674 (.vecs)

.cio       0    c303d600    00000120     UNINITIALIZED
                  c303d600    00000120     rts6740_elf.lib : trgmsg.obj (.cio)

ti_sdo_ipc_init 
*          0    c303d800    0000008c     
                  c303d800    0000008c     dsp_pe674.oe674 (ti_sdo_ipc_init)


GLOBAL SYMBOLS: SORTED ALPHABETICALLY BY Name 

address    name
--------   ----
c300b1e4   AD7606_Init
c30322d0   AD_Data
c3034b70   AdjustValue
c3034af0   BaseFFToutValue
c3025a00   C$$EXIT
c3023e98   C$$IO$$
c3010780   ChangeLED
c30027ec   Check_GL
c3002d38   Check_LXGL
c30033b0   Check_PowerOFF
c300368c   Check_PowerON
c30031c8   Check_YUEX
c300e240   Clock_Init
c30107c8   Collect_Task
c300a244   Convert_Humi
c300a194   Convert_Humi8
c300a154   Convert_Temp
c300a114   Convert_Temp12
c3001654   Creat_Message
c303b730   Cw
c300ee40   DSPF_sp_fftSPxSP
c300c3d8   Delay
c3007300   DigAdjust
c30070c0   DigCmdout
c3006b40   EMIFAAsyncDevDataBusWidthSelect
c3006ac0   EMIFAAsyncDevOpModeSelect
c3006a00   EMIFACSWaitPinSelect
c300696c   EMIFAExtendedWaitConfig
c300694c   EMIFAMaxExtWaitCycleSet
c3006944   EMIFAModuleIdRead
c30068f0   EMIFAMskedIntClear
c30068a0   EMIFAMskedIntDisable
c3006848   EMIFAMskedIntEnable
c3006804   EMIFAMskedIntStatusRead
c30067f0   EMIFANAND4BitECCAddrCalcStart
c30067e0   EMIFANAND4BitECCLoad
c30067d4   EMIFANAND4BitECCNumOfErrsGet
c3006764   EMIFANAND4BitECCSelect
c3006754   EMIFANAND4BitECCStateGet
c30066d8   EMIFANAND4BitEccErrAddrGet
c3006660   EMIFANAND4BitEccErrValGet
c30065f0   EMIFANANDCSSet
c3006568   EMIFANANDECCStart
c300644c   EMIFANANDEccValGet
c30063cc   EMIFANORPageAccessDelaySet
c3006348   EMIFANORPageModeConfig
c30062c0   EMIFANORPageSizeSet
c301aa80   EMIFAPinMuxSetup
c300626c   EMIFARawIntClear
c3006228   EMIFARawIntStatusRead
c300620c   EMIFASDRAMConfig
c30061f0   EMIFASDRAMPowDownModeConfig
c30061e0   EMIFASDRAMRefDurPowDownModeEnable
c30061d4   EMIFASDRAMRefRateSet
c30061c8   EMIFASDRAMSelfRefExitTimeConfig
c30061b0   EMIFASDRAMSelfRefModeConfig
c30061ac   EMIFASDRAMTimingConfig
c3006170   EMIFAWaitPinPolaritySet
c3006150   EMIFAWaitPinStatusGet
c30060e0   EMIFAWaitTimingConfig
c3003900   FA_Task
c3034b30   FFTBaseValue
c30332d0   FFT_In
c3004640   FFT_Task
c303d36c   FGflag
c3015a00   GPIOBank0Pin0PinMuxSetup
c3015a38   GPIOBank0Pin1PinMuxSetup
c3015a74   GPIOBank0Pin2PinMuxSetup
c3015ab0   GPIOBank0Pin5PinMuxSetup
c3015aec   GPIOBank0Pin6PinMuxSetup
c3015b64   GPIOBank6Pin12PinMuxSetup
c3015ba0   GPIOBank6Pin13PinMuxSetup
c3015b28   GPIOBank6Pin1PinMuxSetup
c3011578   GPIOBankIntDisable
c3011560   GPIOBankIntEnable
c3011520   GPIOBankPinsWrite
c30114f0   GPIODirModeGet
c3011494   GPIODirModeSet
c3011450   GPIOIntTypeGet
c30113b4   GPIOIntTypeSet
c3011390   GPIOPinIntClear
c3011360   GPIOPinIntStatus
c301132c   GPIOPinRead
c30112e0   GPIOPinWrite
c3022b20   GateMP_Params_init
c3021220   GateMP_close
c3025740   GateMP_enter
c3025760   GateMP_leave
c3012a20   GateMP_openByAddr
c3015640   GateMP_sharedMemReq
c3003eac   GetTempture
c301e7c0   HOSTwrite
c30212a0   HeapBufMP_Params_init
c3025780   HeapBufMP_close
c301ab80   HeapBufMP_open
c3019020   HeapBufMP_openByAddr
c3017600   HeapBufMP_sharedMemReq
c3022b80   HeapMemMP_Params_init
c301e880   HeapMemMP_create
c3019160   HeapMemMP_openByAddr
c3021320   HeapMemMP_restore
c301a060   HeapMemMP_sharedMemReq
c30070b8   InitAnaInAddr
c300b510   Init_Conf
c30007f8   Init_IPC
c3007014   Init_ShareAddr
c3008680   Ipc_attach
c3008e40   Ipc_detach
c303d808   Ipc_sr0MemorySetup
c3012c80   Ipc_start
c301e940   Ipc_stop
c300f8a0   Ipc_writeConfig
c303d34c   LEDDATA
c300c360   LED_GPIO_Config
c300c2c8   LED_SENDOUT
c30257a0   ListMP_close
c301ea00   ListMP_create
c30257c0   ListMP_delete
c30104a0   ListMP_getHead
c3015820   ListMP_openByAddr
c3011da0   ListMP_putTail
c3012020   ListMP_remove
c301ac80   ListMP_sharedMemReq
c300a094   Measure_Data
c30257e0   MessageQ_Params_init
c30213a0   MessageQ_alloc
c3025800   MessageQ_close
c30242c0   MessageQ_create
c301eac0   MessageQ_create2
c3025820   MessageQ_delete
c3021420   MessageQ_free
c301cd80   MessageQ_get
c3022c40   MessageQ_open
c30192a0   MessageQ_put
c3024300   MessageQ_registerHeap
c3024340   MessageQ_unregisterHeap
c30000e0   Message_Send
c30021b8   Message_Task
c3000274   Message_del
c3035604   Module_Mes
c301eb80   MultiProc_getId
c300eaa0   NameServer_add
c3025840   NameServer_addUInt32
c3011020   NameServer_get
c3017780   NameServer_getHandle
c301ce60   NameServer_getLocal
c3025860   NameServer_getUInt32
c3025880   NameServer_removeEntry
c3003d84   NewTimerInit
c300034c   Notify_del
c3024380   Notify_intLineRegistered
c3022ca0   Notify_numIntLines
c30193e0   Notify_registerEvent
c301ad80   Notify_registerEventSingle
c301ae80   Notify_sendEvent
c3022d00   Notify_sharedMemReq
c3013ac0   Notify_unregisterEvent
c301af80   Notify_unregisterEventSingle
c3017a80   PSCModuleControl
c3003d10   P_Value
c3003ca0   Q_Value
c3006bc0   ReadConfig
c3009cb0   Receive_Data
c3002580   Reclose_State
c303d354   SecondClock
c30023a0   Send_CS
c3000620   Server_exit
c3000000   Server_init
c300062c   Server_notifyCB
c303561c   ShareRegionAddr
c3000a20   ShareRegion_create
c3001d04   ShareRegion_delete
c3000f4c   ShareRegion_exec
c301ec40   SharedRegion_getId
c301fd80   SharedRegion_getPtr
c301fe20   SharedRegion_getSRPtr
c300e220   StartClock
c300e200   StartTimer
c30004d4   Stop_IPC
c3003c74   SumDC
c300e1a4   Sys_Check
c300e160   Sys_Init
c3001b84   Syslink_Init
c303d374   Syslink_terminateEventId
c303d378   Syslink_terminateEventLineId
c3009c40   TEMP_GPIO_Config
c303bdd8   TSK_idle
c3002360   Tempture
c30355a0   Test__Desc
c303d350   Timer3
c300e114   Timer3Isr
c300dfec   TimerIsr
c300df20   Timer_Init
c300f870   UARTBreakCtl
c300f840   UARTCharGet
c300f828   UARTCharGetNonBlocking
c300f7e4   UARTCharPut
c300f7cc   UARTCharPutNonBlocking
c300f7c0   UARTCharsAvail
c300f768   UARTConfigGetExpClk
c300f6d0   UARTConfigSetExpClk
c301d000   UARTConsoleGetc
c301cfa0   UARTConsoleInit
c301cfd8   UARTConsolePutc
c300f6c4   UARTDMADisable
c300f6b4   UARTDMAEnable
c300f698   UARTDisable
c300f68c   UARTEnable
c300f684   UARTFIFODisable
c300f678   UARTFIFOEnable
c300f668   UARTFIFOLevelSet
c3005358   UARTGetHexNum
c30052b4   UARTGetNum
c30258a0   UARTGetc
c3005228   UARTGets
c300f648   UARTIntDisable
c300f62c   UARTIntEnable
c300f624   UARTIntStatus
c300f600   UARTModemControlClear
c300f5f0   UARTModemControlGet
c300f5c0   UARTModemControlSet
c300f5b0   UARTModemStatusGet
c300f5a4   UARTParityModeGet
c300f578   UARTParityModeSet
c3017900   UARTPinMuxSetup
c3005114   UARTPutHexNum
c3004fec   UARTPutNum
c30258c0   UARTPutc
c3004f20   UARTPuts
c300f56c   UARTRxErrorGet
c300f560   UARTSpaceAvail
c30258e0   UARTStdioInit
c30049e0   UARTprintf
c3004960   UARTwrite
c300c16c   YK_GPIO_Config
c300c0b0   YK_SendOut
c300bf60   YX_GPIO_Config
c303d800   _Ipc_ResetVector
c3000000   __ASM__
c303d600   __CIOBUF_
c3000070   __ISA__
c3000088   __PLAT__
c30000b0   __TARG__
UNDEFED    __TI_CINIT_Base
UNDEFED    __TI_CINIT_Limit
UNDEFED    __TI_Handler_Table_Base
UNDEFED    __TI_Handler_Table_Limit
UNDEFED    __TI_INITARRAY_Base
UNDEFED    __TI_INITARRAY_Limit
c303d168   __TI_STACK_END
00001000   __TI_STACK_SIZE
c303d34c   __TI_STATIC_BASE
00000001   __TI_args_main
c303c0d4   __TI_enable_exit_profile_output
ffffffff   __TI_pprof_out_hndl
ffffffff   __TI_prof_data_size
ffffffff   __TI_prof_data_start
c30000d8   __TRDR__
ffffffff   __binit__
c300a920   __c6xabi_divd
c30122a0   __c6xabi_divf
c301ee80   __c6xabi_divu
c3012ee0   __c6xabi_divull
c30214a0   __c6xabi_fixfu
c30243c0   __c6xabi_frcmpyd_div
c3021520   __c6xabi_llshl
c3024400   __c6xabi_llshru
c301fec0   __c6xabi_remu
c303d2e8   __c_args__
c3025900   __cxa_atexit
c301edc0   __cxa_finalize
c3025920   __cxa_ia64_exit
c301ee80   __divu
c303be24   __errno
c301fec0   __remu
c3025940   __xdc__init
c303b728   __xdc__init__addr
c3024440   _args_main
00000064   _argsize
c3019520   _auto_init_elf
c301ff60   _c_int00
c303c0cc   _cleanup_ptr
c303c0d0   _dtors_ptr
c303c0e4   _lock
c3025960   _nop
c3025980   _register_lock
c30259a0   _register_unlock
c303c168   _stack
c3022d60   _subcull
c303c0e8   _unlock
c3025a00   abort
c30342d0   ad7606Str
c3016180   atan2sp
c3025a20   atexit
ffffffff   binit
c303be78   brev
c301a180   cossp
c3035648   dianbiaodata
c303d364   distance
c303be24   errno
c301ef40   exit
c303566c   faprivatedata
c303d358   faqueue
c303d35c   fasem
c303c060   findindex
c3024500   free
c300b460   main
c3021620   malloc
c30200a0   memcpy
c301d020   memset
c30216a0   readmsg
c301a2b4   sinsp
c3020140   sqrtsp
c3022dc0   strpbrk
c303a6c4   ti_sdo_ipc_GateMP_E_gateUnavailable__C
c303a754   ti_sdo_ipc_GateMP_E_localGate__C
c300db00   ti_sdo_ipc_GateMP_Instance_finalize__F
c30055a0   ti_sdo_ipc_GateMP_Instance_init__F
c303c118   ti_sdo_ipc_GateMP_Module_State_0_remoteCustom2Gates__A
c303ab28   ti_sdo_ipc_GateMP_Module_State_0_remoteSystemGates__A
c30399b6   ti_sdo_ipc_GateMP_Module__id__C
c303b328   ti_sdo_ipc_GateMP_Module__root__V
c303b334   ti_sdo_ipc_GateMP_Module__state__V
c303a0e8   ti_sdo_ipc_GateMP_Object__DESC__C
c3039c30   ti_sdo_ipc_GateMP_Object__PARAMS__C
c301d100   ti_sdo_ipc_GateMP_Object__create__S
c3022e20   ti_sdo_ipc_GateMP_Object__delete__S
c3025a40   ti_sdo_ipc_GateMP_Params__init__S
c3025a60   ti_sdo_ipc_GateMP_RemoteCustom1Proxy_Object__create__S
c3025a80   ti_sdo_ipc_GateMP_RemoteCustom1Proxy_Object__delete__S
c3025aa0   ti_sdo_ipc_GateMP_RemoteCustom1Proxy_Params__init__S
c3025ac0   ti_sdo_ipc_GateMP_RemoteCustom1Proxy_Proxy__abstract__S
c3025ae0   ti_sdo_ipc_GateMP_RemoteCustom1Proxy_Proxy__delegate__S
c3025b00   ti_sdo_ipc_GateMP_RemoteCustom1Proxy_getReservedMask__E
c3025b20   ti_sdo_ipc_GateMP_RemoteCustom1Proxy_sharedMemReq__E
c3025b40   ti_sdo_ipc_GateMP_RemoteCustom2Proxy_Object__create__S
c3025b60   ti_sdo_ipc_GateMP_RemoteCustom2Proxy_Object__delete__S
c3025b80   ti_sdo_ipc_GateMP_RemoteCustom2Proxy_Params__init__S
c3025ba0   ti_sdo_ipc_GateMP_RemoteCustom2Proxy_Proxy__abstract__S
c3025bc0   ti_sdo_ipc_GateMP_RemoteCustom2Proxy_Proxy__delegate__S
c3025be0   ti_sdo_ipc_GateMP_RemoteCustom2Proxy_getReservedMask__E
c3025c00   ti_sdo_ipc_GateMP_RemoteCustom2Proxy_sharedMemReq__E
c3025c20   ti_sdo_ipc_GateMP_RemoteSystemProxy_Object__create__S
c3025c40   ti_sdo_ipc_GateMP_RemoteSystemProxy_Object__delete__S
c3025c60   ti_sdo_ipc_GateMP_RemoteSystemProxy_Params__init__S
c3025c80   ti_sdo_ipc_GateMP_RemoteSystemProxy_Proxy__abstract__S
c3025ca0   ti_sdo_ipc_GateMP_RemoteSystemProxy_Proxy__delegate__S
c3025cc0   ti_sdo_ipc_GateMP_RemoteSystemProxy_getReservedMask__E
c3025ce0   ti_sdo_ipc_GateMP_RemoteSystemProxy_sharedMemReq__E
c3025d00   ti_sdo_ipc_GateMP_attach__E
c301f000   ti_sdo_ipc_GateMP_attach__F
c3022e80   ti_sdo_ipc_GateMP_createLocal__F
c3025d20   ti_sdo_ipc_GateMP_detach__E
c30201e0   ti_sdo_ipc_GateMP_detach__F
c3016340   ti_sdo_ipc_GateMP_getFreeResource__I
c3025d40   ti_sdo_ipc_GateMP_getRegion0ReservedSize__E
c3020280   ti_sdo_ipc_GateMP_getRegion0ReservedSize__F
c3025d60   ti_sdo_ipc_GateMP_getSharedAddr__E
c3025d80   ti_sdo_ipc_GateMP_getSharedAddr__F
c3018680   ti_sdo_ipc_GateMP_openRegion0Reserved__F
c300cde0   ti_sdo_ipc_GateMP_setRegion0Reserved__F
c3025da0   ti_sdo_ipc_GateMP_start__E
c301b080   ti_sdo_ipc_GateMP_start__F
c3025dc0   ti_sdo_ipc_GateMP_stop__E
c3020320   ti_sdo_ipc_GateMP_stop__F
c303a77c   ti_sdo_ipc_Ipc_E_internal__C
c303a78c   ti_sdo_ipc_Ipc_E_nameFailed__C
c303a79c   ti_sdo_ipc_Ipc_E_versionMismatch__C
c303bf28   ti_sdo_ipc_Ipc_Module_State_0_procEntry__A
c303b37c   ti_sdo_ipc_Ipc_Module__root__V
c303b380   ti_sdo_ipc_Ipc_Module__state__V
c3039ac6   ti_sdo_ipc_Ipc_generateSlaveDataForHost__C
c301d1e0   ti_sdo_ipc_Ipc_getMasterAddr__I
c3022ee0   ti_sdo_ipc_Ipc_getRegion0ReservedSize__I
c301d2c0   ti_sdo_ipc_Ipc_getSlaveAddr__I
c303a7ac   ti_sdo_ipc_Ipc_numUserFxns__C
c3014e40   ti_sdo_ipc_Ipc_procSyncFinish__I
c3010a60   ti_sdo_ipc_Ipc_procSyncStart__I
c303a7bc   ti_sdo_ipc_Ipc_procSync__C
c303a55e   ti_sdo_ipc_Ipc_sr0MemorySetup__C
c303a758   ti_sdo_ipc_Ipc_userFxns__A
c303a7cc   ti_sdo_ipc_Ipc_userFxns__C
c30187e0   ti_sdo_ipc_ListMP_Instance_finalize__F
c300c920   ti_sdo_ipc_ListMP_Instance_init__F
c303a692   ti_sdo_ipc_ListMP_Module__id__C
c303b38c   ti_sdo_ipc_ListMP_Module__root__V
c303b398   ti_sdo_ipc_ListMP_Module__state__V
c303a108   ti_sdo_ipc_ListMP_Object__DESC__C
c3039d24   ti_sdo_ipc_ListMP_Object__PARAMS__C
c301d3a0   ti_sdo_ipc_ListMP_Object__create__S
c3022f40   ti_sdo_ipc_ListMP_Object__delete__S
c3025de0   ti_sdo_ipc_ListMP_Params__init__S
c301f0c0   ti_sdo_ipc_ListMP_elemClear__I
c303a7dc   ti_sdo_ipc_MessageQ_E_indexNotAvailable__C
c303a7ec   ti_sdo_ipc_MessageQ_E_maxReached__C
c303a7fc   ti_sdo_ipc_MessageQ_E_nameFailed__C
c303a80c   ti_sdo_ipc_MessageQ_Instance_State_highList__O
c303a81c   ti_sdo_ipc_MessageQ_Instance_State_normalList__O
c301b180   ti_sdo_ipc_MessageQ_Instance_finalize__F
c300d240   ti_sdo_ipc_MessageQ_Instance_init__F
c303bf78   ti_sdo_ipc_MessageQ_Module_State_0_heaps__A
c303c070   ti_sdo_ipc_MessageQ_Module_State_0_transports__A
c303a6aa   ti_sdo_ipc_MessageQ_Module__id__C
c303b39c   ti_sdo_ipc_MessageQ_Module__root__V
c303b3a8   ti_sdo_ipc_MessageQ_Module__state__V
c3025e00   ti_sdo_ipc_MessageQ_Module_startup__E
c301a3c0   ti_sdo_ipc_MessageQ_Module_startup__F
c303a128   ti_sdo_ipc_MessageQ_Object__DESC__C
c303a148   ti_sdo_ipc_MessageQ_Object__PARAMS__C
c303a82c   ti_sdo_ipc_MessageQ_Object__count__C
c301b280   ti_sdo_ipc_MessageQ_Object__create__S
c3022fa0   ti_sdo_ipc_MessageQ_Object__delete__S
c3025e20   ti_sdo_ipc_MessageQ_Object__get__S
c303a83c   ti_sdo_ipc_MessageQ_Object__heap__C
c3025e40   ti_sdo_ipc_MessageQ_Params__init__S
c3025e60   ti_sdo_ipc_MessageQ_SetupTransportProxy_attach__E
c3025e80   ti_sdo_ipc_MessageQ_SetupTransportProxy_detach__E
c3025ea0   ti_sdo_ipc_MessageQ_SetupTransportProxy_isRegistered__E
c3025ec0   ti_sdo_ipc_MessageQ_SetupTransportProxy_sharedMemReq__E
c301d480   ti_sdo_ipc_MessageQ_grow__I
c303a890   ti_sdo_ipc_MessageQ_maxRuntimeEntries__C
c303a894   ti_sdo_ipc_MessageQ_numReservedEntries__C
c3025ee0   ti_sdo_ipc_MessageQ_registerTransport__E
c3024540   ti_sdo_ipc_MessageQ_registerTransport__F
c3025f00   ti_sdo_ipc_MessageQ_unregisterTransport__E
c3024580   ti_sdo_ipc_MessageQ_unregisterTransport__F
c301b380   ti_sdo_ipc_Notify_Instance_finalize__F
c3018940   ti_sdo_ipc_Notify_Instance_init__F
c3025f20   ti_sdo_ipc_Notify_Module_GateProxy_enter__E
c3025f40   ti_sdo_ipc_Notify_Module_GateProxy_leave__E
c303c120   ti_sdo_ipc_Notify_Module_State_0_notifyHandles_0__A
c303c128   ti_sdo_ipc_Notify_Module_State_0_notifyHandles_1__A
c303c0f0   ti_sdo_ipc_Notify_Module_State_0_notifyHandles__A
c303a898   ti_sdo_ipc_Notify_Module__gateObj__C
c303b3c8   ti_sdo_ipc_Notify_Module__root__V
c303b3d4   ti_sdo_ipc_Notify_Module__state__V
c3025f60   ti_sdo_ipc_Notify_Module_startup__E
c3021720   ti_sdo_ipc_Notify_Module_startup__F
c303a168   ti_sdo_ipc_Notify_Object__DESC__C
c303a560   ti_sdo_ipc_Notify_Object__PARAMS__C
c301b480   ti_sdo_ipc_Notify_Object__create__S
c3023000   ti_sdo_ipc_Notify_Object__delete__S
c303a89c   ti_sdo_ipc_Notify_Object__heap__C
c3025f80   ti_sdo_ipc_Notify_SetupProxy_attach__E
c3025fa0   ti_sdo_ipc_Notify_SetupProxy_numIntLines__E
c3025fc0   ti_sdo_ipc_Notify_SetupProxy_sharedMemReq__E
c3025fe0   ti_sdo_ipc_Notify_detach__E
c301d560   ti_sdo_ipc_Notify_detach__F
c301f180   ti_sdo_ipc_Notify_execMany__I
c3026000   ti_sdo_ipc_Notify_exec__E
c30245c0   ti_sdo_ipc_Notify_exec__F
c303a8a0   ti_sdo_ipc_Notify_numEvents__C
c303a6c2   ti_sdo_ipc_Notify_numLines__C
c303a8a4   ti_sdo_ipc_Notify_sendEventPollCount__C
c303a8a8   ti_sdo_ipc_SharedRegion_INVALIDSRPTR__C
c303bbe8   ti_sdo_ipc_SharedRegion_Module_State_0_regions__A
c303b3dc   ti_sdo_ipc_SharedRegion_Module__root__V
c303b3e0   ti_sdo_ipc_SharedRegion_Module__state__V
c3026020   ti_sdo_ipc_SharedRegion_attach__E
c301b580   ti_sdo_ipc_SharedRegion_attach__F
c3026040   ti_sdo_ipc_SharedRegion_clearReservedMemory__E
c301b680   ti_sdo_ipc_SharedRegion_clearReservedMemory__F
c3026060   ti_sdo_ipc_SharedRegion_detach__E
c301f240   ti_sdo_ipc_SharedRegion_detach__F
c303a6f6   ti_sdo_ipc_SharedRegion_numEntries__C
c303a8ac   ti_sdo_ipc_SharedRegion_numOffsetBits__C
c303a8b0   ti_sdo_ipc_SharedRegion_offsetMask__C
c3026080   ti_sdo_ipc_SharedRegion_reserveMemory__E
c301d640   ti_sdo_ipc_SharedRegion_reserveMemory__F
c30260a0   ti_sdo_ipc_SharedRegion_resetInternalFields__E
c3024600   ti_sdo_ipc_SharedRegion_resetInternalFields__F
c30260c0   ti_sdo_ipc_SharedRegion_start__E
c3019660   ti_sdo_ipc_SharedRegion_start__F
c30260e0   ti_sdo_ipc_SharedRegion_stop__E
c301d720   ti_sdo_ipc_SharedRegion_stop__F
c303a706   ti_sdo_ipc_SharedRegion_translate__C
c303b3e4   ti_sdo_ipc_family_da830_InterruptDsp_Module__root__V
c3024640   ti_sdo_ipc_family_da830_InterruptDsp_intClear__E
c3026100   ti_sdo_ipc_family_da830_InterruptDsp_intDisable__E
c3026120   ti_sdo_ipc_family_da830_InterruptDsp_intEnable__E
c301f300   ti_sdo_ipc_family_da830_InterruptDsp_intRegister__E
c3024680   ti_sdo_ipc_family_da830_InterruptDsp_intSend__E
c3026140   ti_sdo_ipc_family_da830_InterruptDsp_intUnregister__E
c303b3e6   ti_sdo_ipc_family_da830_NotifySetup_Module__root__V
c303a8b4   ti_sdo_ipc_family_da830_NotifySetup_armRecvIntId0__C
c303a8b8   ti_sdo_ipc_family_da830_NotifySetup_armRecvIntId1__C
c3013d00   ti_sdo_ipc_family_da830_NotifySetup_attach__E
c303a8bc   ti_sdo_ipc_family_da830_NotifySetup_dspIntVectId0__C
c303a8c0   ti_sdo_ipc_family_da830_NotifySetup_dspIntVectId1__C
c303a8c4   ti_sdo_ipc_family_da830_NotifySetup_dspRecvIntId0__C
c303a8c8   ti_sdo_ipc_family_da830_NotifySetup_dspRecvIntId1__C
c3026160   ti_sdo_ipc_family_da830_NotifySetup_numIntLines__E
c30217a0   ti_sdo_ipc_family_da830_NotifySetup_sharedMemReq__E
c303a716   ti_sdo_ipc_family_da830_NotifySetup_useSecondLine__C
c30246c0   ti_sdo_ipc_gates_GateMPSupportNull_Handle__label__S
c3026180   ti_sdo_ipc_gates_GateMPSupportNull_Instance_init__F
c3039d50   ti_sdo_ipc_gates_GateMPSupportNull_Module__FXNS__C
c303b3e8   ti_sdo_ipc_gates_GateMPSupportNull_Module__root__V
c303a188   ti_sdo_ipc_gates_GateMPSupportNull_Object__DESC__C
c3039f14   ti_sdo_ipc_gates_GateMPSupportNull_Object__PARAMS__C
c3021820   ti_sdo_ipc_gates_GateMPSupportNull_Object__create__S
c3024700   ti_sdo_ipc_gates_GateMPSupportNull_Object__delete__S
c30261a0   ti_sdo_ipc_gates_GateMPSupportNull_Params__init__S
c30261c0   ti_sdo_ipc_gates_GateMPSupportNull_enter__E
c30261e0   ti_sdo_ipc_gates_GateMPSupportNull_getReservedMask__E
c3026200   ti_sdo_ipc_gates_GateMPSupportNull_leave__E
c3026220   ti_sdo_ipc_gates_GateMPSupportNull_query__E
c3026240   ti_sdo_ipc_gates_GateMPSupportNull_query__F
c3026260   ti_sdo_ipc_gates_GateMPSupportNull_sharedMemReq__E
c303a8cc   ti_sdo_ipc_gates_GatePeterson_E_gateRemotelyOpened__C
c3024740   ti_sdo_ipc_gates_GatePeterson_Handle__label__S
c3023060   ti_sdo_ipc_gates_GatePeterson_Instance_finalize__F
c3012520   ti_sdo_ipc_gates_GatePeterson_Instance_init__F
c3039d7c   ti_sdo_ipc_gates_GatePeterson_Module__FXNS__C
c303a726   ti_sdo_ipc_gates_GatePeterson_Module__id__C
c303b3f4   ti_sdo_ipc_gates_GatePeterson_Module__root__V
c303a1a8   ti_sdo_ipc_gates_GatePeterson_Object__DESC__C
c3039f38   ti_sdo_ipc_gates_GatePeterson_Object__PARAMS__C
c301b780   ti_sdo_ipc_gates_GatePeterson_Object__create__S
c30230c0   ti_sdo_ipc_gates_GatePeterson_Object__delete__S
c3026280   ti_sdo_ipc_gates_GatePeterson_Params__init__S
c3017d80   ti_sdo_ipc_gates_GatePeterson_enter__E
c30262a0   ti_sdo_ipc_gates_GatePeterson_getReservedMask__E
c30203c0   ti_sdo_ipc_gates_GatePeterson_leave__E
c301f3c0   ti_sdo_ipc_gates_GatePeterson_postInit__I
c30262c0   ti_sdo_ipc_gates_GatePeterson_query__E
c30262e0   ti_sdo_ipc_gates_GatePeterson_query__F
c301d800   ti_sdo_ipc_gates_GatePeterson_sharedMemReq__E
c303a8d0   ti_sdo_ipc_heaps_HeapBufMP_E_alignTooLarge__C
c303a8d4   ti_sdo_ipc_heaps_HeapBufMP_E_exactFail__C
c303a8d8   ti_sdo_ipc_heaps_HeapBufMP_E_noBlocksLeft__C
c303a8dc   ti_sdo_ipc_heaps_HeapBufMP_E_sizeTooLarge__C
c3024780   ti_sdo_ipc_heaps_HeapBufMP_Handle__label__S
c3017f00   ti_sdo_ipc_heaps_HeapBufMP_Instance_finalize__F
c300ba00   ti_sdo_ipc_heaps_HeapBufMP_Instance_init__F
c3039dd4   ti_sdo_ipc_heaps_HeapBufMP_Module__FXNS__C
c303a736   ti_sdo_ipc_heaps_HeapBufMP_Module__id__C
c303b400   ti_sdo_ipc_heaps_HeapBufMP_Module__root__V
c303b40c   ti_sdo_ipc_heaps_HeapBufMP_Module__state__V
c303a1c8   ti_sdo_ipc_heaps_HeapBufMP_Object__DESC__C
c3039bc0   ti_sdo_ipc_heaps_HeapBufMP_Object__PARAMS__C
c301d8e0   ti_sdo_ipc_heaps_HeapBufMP_Object__create__S
c3023120   ti_sdo_ipc_heaps_HeapBufMP_Object__delete__S
c3026300   ti_sdo_ipc_heaps_HeapBufMP_Params__init__S
c3015040   ti_sdo_ipc_heaps_HeapBufMP_alloc__E
c301d9c0   ti_sdo_ipc_heaps_HeapBufMP_free__E
c3026320   ti_sdo_ipc_heaps_HeapBufMP_getStats__E
c301daa0   ti_sdo_ipc_heaps_HeapBufMP_getStats__F
c3026340   ti_sdo_ipc_heaps_HeapBufMP_isBlocking__E
c3026360   ti_sdo_ipc_heaps_HeapBufMP_isBlocking__F
c300fba0   ti_sdo_ipc_heaps_HeapBufMP_postInit__I
c303a746   ti_sdo_ipc_heaps_HeapBufMP_trackAllocs__C
c303a8e0   ti_sdo_ipc_heaps_HeapMemMP_E_memory__C
c30247c0   ti_sdo_ipc_heaps_HeapMemMP_Handle__label__S
c3018aa0   ti_sdo_ipc_heaps_HeapMemMP_Instance_finalize__F
c300c440   ti_sdo_ipc_heaps_HeapMemMP_Instance_init__F
c3039dfc   ti_sdo_ipc_heaps_HeapMemMP_Module__FXNS__C
c303a7da   ti_sdo_ipc_heaps_HeapMemMP_Module__id__C
c303b410   ti_sdo_ipc_heaps_HeapMemMP_Module__root__V
c303b41c   ti_sdo_ipc_heaps_HeapMemMP_Module__state__V
c303a1e8   ti_sdo_ipc_heaps_HeapMemMP_Object__DESC__C
c3039c98   ti_sdo_ipc_heaps_HeapMemMP_Object__PARAMS__C
c301db80   ti_sdo_ipc_heaps_HeapMemMP_Object__create__S
c3023180   ti_sdo_ipc_heaps_HeapMemMP_Object__delete__S
c3026380   ti_sdo_ipc_heaps_HeapMemMP_Params__init__S
c300e320   ti_sdo_ipc_heaps_HeapMemMP_alloc__E
c300e6e0   ti_sdo_ipc_heaps_HeapMemMP_free__E
c3013f40   ti_sdo_ipc_heaps_HeapMemMP_getStats__E
c30263a0   ti_sdo_ipc_heaps_HeapMemMP_isBlocking__E
c30263c0   ti_sdo_ipc_heaps_HeapMemMP_isBlocking__F
c3016500   ti_sdo_ipc_heaps_HeapMemMP_postInit__I
c303a8e4   ti_sdo_ipc_interfaces_IGateMPSupport_Interface__BASE__C
c303a8e8   ti_sdo_ipc_interfaces_IMessageQTransport_Interface__BASE__C
c303a8ec   ti_sdo_ipc_interfaces_INotifyDriver_Interface__BASE__C
c3024800   ti_sdo_ipc_notifyDrivers_NotifyDriverShm_Handle__label__S
c3020460   ti_sdo_ipc_notifyDrivers_NotifyDriverShm_Instance_finalize__F
c3015240   ti_sdo_ipc_notifyDrivers_NotifyDriverShm_Instance_init__F
c30263e0   ti_sdo_ipc_notifyDrivers_NotifyDriverShm_InterruptProxy_intClear__E
c3026400   ti_sdo_ipc_notifyDrivers_NotifyDriverShm_InterruptProxy_intDisable__E
c3026420   ti_sdo_ipc_notifyDrivers_NotifyDriverShm_InterruptProxy_intEnable__E
c3026440   ti_sdo_ipc_notifyDrivers_NotifyDriverShm_InterruptProxy_intRegister__E
c3026460   ti_sdo_ipc_notifyDrivers_NotifyDriverShm_InterruptProxy_intSend__E
c3026480   ti_sdo_ipc_notifyDrivers_NotifyDriverShm_InterruptProxy_intUnregister__E
c3039bf8   ti_sdo_ipc_notifyDrivers_NotifyDriverShm_Module__FXNS__C
c303b420   ti_sdo_ipc_notifyDrivers_NotifyDriverShm_Module__root__V
c303a208   ti_sdo_ipc_notifyDrivers_NotifyDriverShm_Object__DESC__C
c3039c64   ti_sdo_ipc_notifyDrivers_NotifyDriverShm_Object__PARAMS__C
c301dc60   ti_sdo_ipc_notifyDrivers_NotifyDriverShm_Object__create__S
c30231e0   ti_sdo_ipc_notifyDrivers_NotifyDriverShm_Object__delete__S
c303a8f0   ti_sdo_ipc_notifyDrivers_NotifyDriverShm_Object__heap__C
c30264a0   ti_sdo_ipc_notifyDrivers_NotifyDriverShm_Params__init__S
c30197a0   ti_sdo_ipc_notifyDrivers_NotifyDriverShm_disableEvent__E
c30264c0   ti_sdo_ipc_notifyDrivers_NotifyDriverShm_disable__E
c3023240   ti_sdo_ipc_notifyDrivers_NotifyDriverShm_enableEvent__E
c30264e0   ti_sdo_ipc_notifyDrivers_NotifyDriverShm_enable__E
c3018080   ti_sdo_ipc_notifyDrivers_NotifyDriverShm_isr__I
c3016f80   ti_sdo_ipc_notifyDrivers_NotifyDriverShm_registerEvent__E
c3015440   ti_sdo_ipc_notifyDrivers_NotifyDriverShm_sendEvent__E
c30232a0   ti_sdo_ipc_notifyDrivers_NotifyDriverShm_setNotifyHandle__E
c3026500   ti_sdo_ipc_notifyDrivers_NotifyDriverShm_sharedMemReq__E
c30218a0   ti_sdo_ipc_notifyDrivers_NotifyDriverShm_sharedMemReq__F
c3017120   ti_sdo_ipc_notifyDrivers_NotifyDriverShm_unregisterEvent__E
c3024840   ti_sdo_ipc_nsremote_NameServerRemoteNotify_Handle__label__S
c303a8f4   ti_sdo_ipc_nsremote_NameServerRemoteNotify_Instance_State_semMultiBlock__O
c303a8f8   ti_sdo_ipc_nsremote_NameServerRemoteNotify_Instance_State_semRemoteWait__O
c303a8fc   ti_sdo_ipc_nsremote_NameServerRemoteNotify_Instance_State_swiObj__O
c301b880   ti_sdo_ipc_nsremote_NameServerRemoteNotify_Instance_finalize__F
c3010d40   ti_sdo_ipc_nsremote_NameServerRemoteNotify_Instance_init__F
c3039e24   ti_sdo_ipc_nsremote_NameServerRemoteNotify_Module__FXNS__C
c303a7ea   ti_sdo_ipc_nsremote_NameServerRemoteNotify_Module__id__C
c303b42c   ti_sdo_ipc_nsremote_NameServerRemoteNotify_Module__root__V
c303a228   ti_sdo_ipc_nsremote_NameServerRemoteNotify_Object__DESC__C
c303a248   ti_sdo_ipc_nsremote_NameServerRemoteNotify_Object__PARAMS__C
c301b980   ti_sdo_ipc_nsremote_NameServerRemoteNotify_Object__create__S
c3023300   ti_sdo_ipc_nsremote_NameServerRemoteNotify_Object__delete__S
c3026520   ti_sdo_ipc_nsremote_NameServerRemoteNotify_Object__first__S
c3026540   ti_sdo_ipc_nsremote_NameServerRemoteNotify_Object__next__S
c3026560   ti_sdo_ipc_nsremote_NameServerRemoteNotify_Params__init__S
c301f480   ti_sdo_ipc_nsremote_NameServerRemoteNotify_attach__E
c3026580   ti_sdo_ipc_nsremote_NameServerRemoteNotify_cbFxn__I
c3021920   ti_sdo_ipc_nsremote_NameServerRemoteNotify_detach__E
c30265a0   ti_sdo_ipc_nsremote_NameServerRemoteNotify_get__E
c300d6a0   ti_sdo_ipc_nsremote_NameServerRemoteNotify_get__F
c303a900   ti_sdo_ipc_nsremote_NameServerRemoteNotify_notifyEventId__C
c3024880   ti_sdo_ipc_nsremote_NameServerRemoteNotify_sharedMemReq__E
c30143c0   ti_sdo_ipc_nsremote_NameServerRemoteNotify_swiFxn__I
c303a904   ti_sdo_ipc_nsremote_NameServerRemoteNotify_timeout__C
c303c0f8   ti_sdo_ipc_transports_TransportShmSetup_Module_State_0_handles__A
c303b444   ti_sdo_ipc_transports_TransportShmSetup_Module__root__V
c303b448   ti_sdo_ipc_transports_TransportShmSetup_Module__state__V
c301ba80   ti_sdo_ipc_transports_TransportShmSetup_attach__E
c3020500   ti_sdo_ipc_transports_TransportShmSetup_detach__E
c30265c0   ti_sdo_ipc_transports_TransportShmSetup_isRegistered__E
c303a908   ti_sdo_ipc_transports_TransportShmSetup_priority__C
c3023360   ti_sdo_ipc_transports_TransportShmSetup_sharedMemReq__E
c30248c0   ti_sdo_ipc_transports_TransportShm_Handle__label__S
c303a90c   ti_sdo_ipc_transports_TransportShm_Instance_State_swiObj__O
c3011860   ti_sdo_ipc_transports_TransportShm_Instance_finalize__F
c3009540   ti_sdo_ipc_transports_TransportShm_Instance_init__F
c3039e4c   ti_sdo_ipc_transports_TransportShm_Module__FXNS__C
c303a7fa   ti_sdo_ipc_transports_TransportShm_Module__id__C
c303b438   ti_sdo_ipc_transports_TransportShm_Module__root__V
c303a268   ti_sdo_ipc_transports_TransportShm_Object__DESC__C
c3039e74   ti_sdo_ipc_transports_TransportShm_Object__PARAMS__C
c301bb80   ti_sdo_ipc_transports_TransportShm_Object__create__S
c30233c0   ti_sdo_ipc_transports_TransportShm_Object__delete__S
c30265e0   ti_sdo_ipc_transports_TransportShm_Params__init__S
c3026600   ti_sdo_ipc_transports_TransportShm_close__E
c3026620   ti_sdo_ipc_transports_TransportShm_close__F
c3026640   ti_sdo_ipc_transports_TransportShm_control__E
c3026660   ti_sdo_ipc_transports_TransportShm_getStatus__E
c303a80a   ti_sdo_ipc_transports_TransportShm_notifyEventId__C
c3026680   ti_sdo_ipc_transports_TransportShm_notifyFxn__I
c30266a0   ti_sdo_ipc_transports_TransportShm_openByAddr__E
c30198e0   ti_sdo_ipc_transports_TransportShm_openByAddr__F
c3019a20   ti_sdo_ipc_transports_TransportShm_put__E
c30266c0   ti_sdo_ipc_transports_TransportShm_setErrFxn__E
c30266e0   ti_sdo_ipc_transports_TransportShm_setErrFxn__F
c3026700   ti_sdo_ipc_transports_TransportShm_sharedMemReq__E
c301a4e0   ti_sdo_ipc_transports_TransportShm_sharedMemReq__F
c30219a0   ti_sdo_ipc_transports_TransportShm_swiFxn__I
c303a910   ti_sdo_utils_INameServerRemote_Interface__BASE__C
c3026720   ti_sdo_utils_List_Instance_init__F
c303b44c   ti_sdo_utils_List_Module__root__V
c303a288   ti_sdo_utils_List_Object__DESC__C
c303a578   ti_sdo_utils_List_Object__PARAMS__C
c3021a20   ti_sdo_utils_List_Object__create__S
c3026740   ti_sdo_utils_List_Object__destruct__S
c3026760   ti_sdo_utils_List_Object__get__S
c3024900   ti_sdo_utils_List_get__E
c3024940   ti_sdo_utils_List_putHead__E
c3024980   ti_sdo_utils_List_put__E
c303b458   ti_sdo_utils_MultiProc_Module__root__V
c303b45a   ti_sdo_utils_MultiProc_Module__state__V
c3026780   ti_sdo_utils_MultiProc_getClusterId__E
c30267a0   ti_sdo_utils_MultiProc_getClusterId__F
c303a858   ti_sdo_utils_MultiProc_nameList__A
c303a914   ti_sdo_utils_MultiProc_nameList__C
c303a81a   ti_sdo_utils_MultiProc_numProcessors__C
c303a82a   ti_sdo_utils_MultiProc_numProcsInCluster__C
c303a918   ti_sdo_utils_MultiProc_procIdList__A
c303a91c   ti_sdo_utils_MultiProc_procIdList__C
c303b474   ti_sdo_utils_NameServerRemoteNull_Module__root__V
c303a920   ti_sdo_utils_NameServer_E_entryExists__C
c303a924   ti_sdo_utils_NameServer_E_maxReached__C
c303a928   ti_sdo_utils_NameServer_Instance_State_freeList__O
c303a92c   ti_sdo_utils_NameServer_Instance_State_nameList__O
c30282c0   ti_sdo_utils_NameServer_Module_State_0_nsRemoteHandle__A
c303a83a   ti_sdo_utils_NameServer_Module__id__C
c303b460   ti_sdo_utils_NameServer_Module__root__V
c30249c0   ti_sdo_utils_NameServer_Module__startupDone__F
c30267c0   ti_sdo_utils_NameServer_Module__startupDone__S
c303b46c   ti_sdo_utils_NameServer_Module__state__V
c30267e0   ti_sdo_utils_NameServer_Module_startup__E
c301dd40   ti_sdo_utils_NameServer_Module_startup__F
c303a930   ti_sdo_utils_NameServer_Object__count__C
c3026800   ti_sdo_utils_NameServer_Object__first__S
c3024a00   ti_sdo_utils_NameServer_Object__get__S
c3026820   ti_sdo_utils_NameServer_Object__next__S
c303bad0   ti_sdo_utils_NameServer_Object__table__V
c3026840   ti_sdo_utils_NameServer_SetupProxy_attach__E
c3026860   ti_sdo_utils_NameServer_SetupProxy_detach__E
c3026880   ti_sdo_utils_NameServer_SetupProxy_sharedMemReq__E
c301bc80   ti_sdo_utils_NameServer_findLocal__I
c301f540   ti_sdo_utils_NameServer_postInit__I
c3024a40   ti_sdo_utils_NameServer_registerRemoteDriver__E
c3018c00   ti_sdo_utils_NameServer_removeLocal__I
c303aaf4   ti_sdo_utils_NameServer_singleProcessor__C
c3024a80   ti_sdo_utils_NameServer_unregisterRemoteDriver__E
c303b480   ti_sysbios_BIOS_Module__root__V
c303b484   ti_sysbios_BIOS_Module__state__V
c30268a0   ti_sysbios_BIOS_RtsGateProxy_enter__E
c30268c0   ti_sysbios_BIOS_RtsGateProxy_leave__E
c3021aa0   ti_sysbios_BIOS_errorRaiseHook__I
c3021b20   ti_sysbios_BIOS_exitFunc__I
c30268e0   ti_sysbios_BIOS_getThreadType__E
c303a934   ti_sysbios_BIOS_installedErrorHook__C
c3026900   ti_sysbios_BIOS_nullFunc__I
c3023420   ti_sysbios_BIOS_registerRTSLock__I
c3023480   ti_sysbios_BIOS_removeRTSLock__I
c30234e0   ti_sysbios_BIOS_rtsLock__I
c3024ac0   ti_sysbios_BIOS_rtsUnlock__I
c3026920   ti_sysbios_BIOS_setThreadType__E
c3024b00   ti_sysbios_BIOS_startFunc__I
c3026940   ti_sysbios_BIOS_start__E
c303b4a4   ti_sysbios_family_c62_IntrinsicsSupport_Module__root__V
c303b4a6   ti_sysbios_family_c62_TaskSupport_Module__root__V
c3026960   ti_sysbios_family_c62_TaskSupport_Module__startupDone__S
c3024480   ti_sysbios_family_c62_TaskSupport_buildTaskStack
c3026980   ti_sysbios_family_c62_TaskSupport_checkStack__E
c30269a0   ti_sysbios_family_c62_TaskSupport_getStackAlignment__E
c30259c0   ti_sysbios_family_c62_TaskSupport_glue
c303a938   ti_sysbios_family_c62_TaskSupport_stackAlignment__C
c3023540   ti_sysbios_family_c62_TaskSupport_start__E
c30215a0   ti_sysbios_family_c62_TaskSupport_swap__E
c303a93c   ti_sysbios_family_c64p_Cache_EMIFA_BASE__C
c303a940   ti_sysbios_family_c64p_Cache_EMIFA_CFG__C
c303a944   ti_sysbios_family_c64p_Cache_EMIFA_LENGTH__C
c303a948   ti_sysbios_family_c64p_Cache_EMIFB_BASE__C
c303a94c   ti_sysbios_family_c64p_Cache_EMIFB_CFG__C
c303a950   ti_sysbios_family_c64p_Cache_EMIFB_LENGTH__C
c303a954   ti_sysbios_family_c64p_Cache_EMIFC_BASE__C
c303a958   ti_sysbios_family_c64p_Cache_EMIFC_CFG__C
c303a95c   ti_sysbios_family_c64p_Cache_EMIFC_LENGTH__C
c303a960   ti_sysbios_family_c64p_Cache_MAR0_31__C
c303a964   ti_sysbios_family_c64p_Cache_MAR128_159__C
c303a968   ti_sysbios_family_c64p_Cache_MAR160_191__C
c303a96c   ti_sysbios_family_c64p_Cache_MAR192_223__C
c303a970   ti_sysbios_family_c64p_Cache_MAR224_255__C
c303a974   ti_sysbios_family_c64p_Cache_MAR32_63__C
c303a978   ti_sysbios_family_c64p_Cache_MAR64_95__C
c303a97c   ti_sysbios_family_c64p_Cache_MAR96_127__C
c303b4a8   ti_sysbios_family_c64p_Cache_Module__root__V
c303b4ac   ti_sysbios_family_c64p_Cache_Module__state__V
c30269c0   ti_sysbios_family_c64p_Cache_Module_startup__E
c301de20   ti_sysbios_family_c64p_Cache_Module_startup__F
c30235a0   ti_sysbios_family_c64p_Cache_all__I
c30166c0   ti_sysbios_family_c64p_Cache_block__I
c303a764   ti_sysbios_family_c64p_Cache_initSize__C
c30269e0   ti_sysbios_family_c64p_Cache_invL1pAll__E
c3026a00   ti_sysbios_family_c64p_Cache_inv__E
c3023600   ti_sysbios_family_c64p_Cache_marInit__I
c3023660   ti_sysbios_family_c64p_Cache_setMar__E
c30236c0   ti_sysbios_family_c64p_Cache_setSize__E
c3023720   ti_sysbios_family_c64p_Cache_wait__E
c3026a20   ti_sysbios_family_c64p_Cache_wbInv__E
c3026a40   ti_sysbios_family_c64p_Cache_wb__E
c303a980   ti_sysbios_family_c64p_Exception_E_exceptionMax__C
c303a984   ti_sysbios_family_c64p_Exception_E_exceptionMin__C
c303aaf6   ti_sysbios_family_c64p_Exception_Module__id__C
c303b4b0   ti_sysbios_family_c64p_Exception_Module__root__V
c303b4b4   ti_sysbios_family_c64p_Exception_Module__state__V
c3026a60   ti_sysbios_family_c64p_Exception_Module_startup__E
c301a600   ti_sysbios_family_c64p_Exception_Module_startup__F
c3016880   ti_sysbios_family_c64p_Exception_decodeMpfsr__I
c3017c00   ti_sysbios_family_c64p_Exception_dispatch__E
c303aaf8   ti_sysbios_family_c64p_Exception_enableExternalMPC__C
c303aafa   ti_sysbios_family_c64p_Exception_enablePrint__C
c303a988   ti_sysbios_family_c64p_Exception_exceptionHook__C
c3015be0   ti_sysbios_family_c64p_Exception_externalHandler__I
c303a98c   ti_sysbios_family_c64p_Exception_externalHook__C
c3007540   ti_sysbios_family_c64p_Exception_handler__I
c3013140   ti_sysbios_family_c64p_Exception_internalHandler__I
c303a990   ti_sysbios_family_c64p_Exception_internalHook__C
c303a994   ti_sysbios_family_c64p_Exception_nmiHook__C
c303aafc   ti_sysbios_family_c64p_Exception_useInternalBuffer__C
c303d400   ti_sysbios_family_c64p_Hwi0
c303a998   ti_sysbios_family_c64p_Hwi_E_alreadyDefined__C
c303a99c   ti_sysbios_family_c64p_Hwi_E_handleNotFound__C
c301df00   ti_sysbios_family_c64p_Hwi_Instance_finalize__F
c301dfe0   ti_sysbios_family_c64p_Hwi_Instance_init__F
c303aafe   ti_sysbios_family_c64p_Hwi_Module__id__C
c303b4e4   ti_sysbios_family_c64p_Hwi_Module__root__V
c3024b40   ti_sysbios_family_c64p_Hwi_Module__startupDone__F
c3026a80   ti_sysbios_family_c64p_Hwi_Module__startupDone__S
c303b4f0   ti_sysbios_family_c64p_Hwi_Module__state__V
c3026aa0   ti_sysbios_family_c64p_Hwi_Module_startup__E
c301bd80   ti_sysbios_family_c64p_Hwi_Module_startup__F
c303a2a8   ti_sysbios_family_c64p_Hwi_Object__DESC__C
c3039cc8   ti_sysbios_family_c64p_Hwi_Object__PARAMS__C
c301be80   ti_sysbios_family_c64p_Hwi_Object__create__S
c3023780   ti_sysbios_family_c64p_Hwi_Object__delete__S
c303c018   ti_sysbios_family_c64p_Hwi_Object__table__V
c3026ac0   ti_sysbios_family_c64p_Hwi_Params__init__S
c3026ae0   ti_sysbios_family_c64p_Hwi_clearInterrupt__E
c3024b80   ti_sysbios_family_c64p_Hwi_disableInterrupt__E
c3014c40   ti_sysbios_family_c64p_Hwi_dispatchAlways
c301bf80   ti_sysbios_family_c64p_Hwi_dispatchC__I
c3024bc0   ti_sysbios_family_c64p_Hwi_enableInterrupt__E
c30205a0   ti_sysbios_family_c64p_Hwi_eventMap__E
c3026b00   ti_sysbios_family_c64p_Hwi_getHandle__E
c3020640   ti_sysbios_family_c64p_Hwi_getStackInfo__E
c303d400   ti_sysbios_family_c64p_Hwi_int0
c303d420   ti_sysbios_family_c64p_Hwi_int1
c303d540   ti_sysbios_family_c64p_Hwi_int10
c303d560   ti_sysbios_family_c64p_Hwi_int11
c303d580   ti_sysbios_family_c64p_Hwi_int12
c303d5a0   ti_sysbios_family_c64p_Hwi_int13
c303d5c0   ti_sysbios_family_c64p_Hwi_int14
c303d5e0   ti_sysbios_family_c64p_Hwi_int15
c303d440   ti_sysbios_family_c64p_Hwi_int2
c303d460   ti_sysbios_family_c64p_Hwi_int3
c303d480   ti_sysbios_family_c64p_Hwi_int4
c303d4a0   ti_sysbios_family_c64p_Hwi_int5
c303d4c0   ti_sysbios_family_c64p_Hwi_int6
c303d4e0   ti_sysbios_family_c64p_Hwi_int7
c303d500   ti_sysbios_family_c64p_Hwi_int8
c303d520   ti_sysbios_family_c64p_Hwi_int9
c3020000   ti_sysbios_family_c64p_Hwi_plug__E
c30145e0   ti_sysbios_family_c64p_Hwi_reconfig__E
c3026b20   ti_sysbios_family_c64p_Hwi_startup__E
c3026b40   ti_sysbios_family_c64p_Hwi_switchFromBootStack__E
c3026b60   ti_sysbios_family_c64p_Hwi_unPluggedInterrupt__I
c3026b80   ti_sysbios_family_c64p_TimestampProvider_Module_startup__E
c3026ba0   ti_sysbios_family_c64p_TimestampProvider_Module_startup__F
c3026bc0   ti_sysbios_family_c64p_TimestampProvider_get64__E
c303c100   ti_sysbios_family_c64p_primus_TimerSupport_Module_State_0_suspSrc__A
c303b558   ti_sysbios_family_c64p_primus_TimerSupport_Module__root__V
c303b55c   ti_sysbios_family_c64p_primus_TimerSupport_Module__state__V
c3024c00   ti_sysbios_family_c64p_primus_TimerSupport_enable__E
c30244c0   ti_sysbios_family_xxx_Hwi_switchToIsrStack
c30259e0   ti_sysbios_family_xxx_Hwi_switchToTaskStack
c3024c40   ti_sysbios_gates_GateAll_Handle__label__S
c3026be0   ti_sysbios_gates_GateAll_Instance_init__F
c3039f5c   ti_sysbios_gates_GateAll_Module__FXNS__C
c303b560   ti_sysbios_gates_GateAll_Module__root__V
c303a2c8   ti_sysbios_gates_GateAll_Object__DESC__C
c303a590   ti_sysbios_gates_GateAll_Object__PARAMS__C
c3021ba0   ti_sysbios_gates_GateAll_Object__create__S
c3024c80   ti_sysbios_gates_GateAll_Object__delete__S
c303c080   ti_sysbios_gates_GateAll_Object__table__V
c30237e0   ti_sysbios_gates_GateAll_enter__E
c3023840   ti_sysbios_gates_GateAll_leave__E
c3026c00   ti_sysbios_gates_GateAll_query__E
c3026c20   ti_sysbios_gates_GateAll_query__F
c3024cc0   ti_sysbios_gates_GateHwi_Handle__label__S
c3026c40   ti_sysbios_gates_GateHwi_Instance_init__F
c3039f80   ti_sysbios_gates_GateHwi_Module__FXNS__C
c303b56c   ti_sysbios_gates_GateHwi_Module__root__V
c303a2e8   ti_sysbios_gates_GateHwi_Object__DESC__C
c303a5a8   ti_sysbios_gates_GateHwi_Object__PARAMS__C
c3021c20   ti_sysbios_gates_GateHwi_Object__create__S
c3024d00   ti_sysbios_gates_GateHwi_Object__delete__S
c303c130   ti_sysbios_gates_GateHwi_Object__table__V
c3026c60   ti_sysbios_gates_GateHwi_enter__E
c3026c80   ti_sysbios_gates_GateHwi_leave__E
c3026ca0   ti_sysbios_gates_GateHwi_query__E
c3026cc0   ti_sysbios_gates_GateHwi_query__F
c3024d40   ti_sysbios_gates_GateMutexPri_Handle__label__S
c303a9a0   ti_sysbios_gates_GateMutexPri_Instance_State_pendQ__O
c3026ce0   ti_sysbios_gates_GateMutexPri_Instance_finalize__F
c3024d80   ti_sysbios_gates_GateMutexPri_Instance_init__F
c3039fa4   ti_sysbios_gates_GateMutexPri_Module__FXNS__C
c303b584   ti_sysbios_gates_GateMutexPri_Module__root__V
c303a308   ti_sysbios_gates_GateMutexPri_Object__DESC__C
c303a5c0   ti_sysbios_gates_GateMutexPri_Object__PARAMS__C
c3021ca0   ti_sysbios_gates_GateMutexPri_Object__create__S
c30238a0   ti_sysbios_gates_GateMutexPri_Object__delete__S
c3024dc0   ti_sysbios_gates_GateMutexPri_Object__destruct__S
c303c030   ti_sysbios_gates_GateMutexPri_Object__table__V
c3014800   ti_sysbios_gates_GateMutexPri_enter__E
c301c080   ti_sysbios_gates_GateMutexPri_leave__E
c3026d00   ti_sysbios_gates_GateMutexPri_query__E
c3026d20   ti_sysbios_gates_GateMutexPri_query__F
c3024e00   ti_sysbios_gates_GateMutex_Handle__label__S
c303a9a4   ti_sysbios_gates_GateMutex_Instance_State_sem__O
c3026d40   ti_sysbios_gates_GateMutex_Instance_finalize__F
c3023900   ti_sysbios_gates_GateMutex_Instance_init__F
c3039fc8   ti_sysbios_gates_GateMutex_Module__FXNS__C
c303b578   ti_sysbios_gates_GateMutex_Module__root__V
c303a328   ti_sysbios_gates_GateMutex_Object__DESC__C
c303a5d8   ti_sysbios_gates_GateMutex_Object__PARAMS__C
c3021d20   ti_sysbios_gates_GateMutex_Object__create__S
c3023960   ti_sysbios_gates_GateMutex_Object__delete__S
c303beb8   ti_sysbios_gates_GateMutex_Object__table__V
c30206e0   ti_sysbios_gates_GateMutex_enter__E
c3024e40   ti_sysbios_gates_GateMutex_leave__E
c3026d60   ti_sysbios_gates_GateMutex_query__E
c3026d80   ti_sysbios_gates_GateMutex_query__F
c3024e80   ti_sysbios_gates_GateSwi_Handle__label__S
c3026da0   ti_sysbios_gates_GateSwi_Instance_init__F
c3039fec   ti_sysbios_gates_GateSwi_Module__FXNS__C
c303b590   ti_sysbios_gates_GateSwi_Module__root__V
c303a348   ti_sysbios_gates_GateSwi_Object__DESC__C
c303a5f0   ti_sysbios_gates_GateSwi_Object__PARAMS__C
c3021da0   ti_sysbios_gates_GateSwi_Object__create__S
c3024ec0   ti_sysbios_gates_GateSwi_Object__delete__S
c303c0d8   ti_sysbios_gates_GateSwi_Object__table__V
c3026dc0   ti_sysbios_gates_GateSwi_enter__E
c3026de0   ti_sysbios_gates_GateSwi_leave__E
c3026e00   ti_sysbios_gates_GateSwi_query__E
c3026e20   ti_sysbios_gates_GateSwi_query__F
c3026e40   ti_sysbios_hal_Cache_CacheProxy_inv__E
c3026e60   ti_sysbios_hal_Cache_CacheProxy_wbInv__E
c3026e80   ti_sysbios_hal_Cache_CacheProxy_wb__E
c303b59c   ti_sysbios_hal_Cache_Module__root__V
c3026ea0   ti_sysbios_hal_Cache_inv__E
c3026ec0   ti_sysbios_hal_Cache_wbInv__E
c3026ee0   ti_sysbios_hal_Cache_wb__E
c303a9a8   ti_sysbios_hal_Hwi_E_stackOverflow__C
c3026f00   ti_sysbios_hal_Hwi_HwiProxy_Module__startupDone__S
c3026f20   ti_sysbios_hal_Hwi_HwiProxy_Object__create__S
c3026f40   ti_sysbios_hal_Hwi_HwiProxy_Object__delete__S
c3026f60   ti_sysbios_hal_Hwi_HwiProxy_clearInterrupt__E
c3026f80   ti_sysbios_hal_Hwi_HwiProxy_disableInterrupt__E
c3026fa0   ti_sysbios_hal_Hwi_HwiProxy_enableInterrupt__E
c3026fc0   ti_sysbios_hal_Hwi_HwiProxy_getStackInfo__E
c3026fe0   ti_sysbios_hal_Hwi_HwiProxy_startup__E
c3027000   ti_sysbios_hal_Hwi_HwiProxy_switchFromBootStack__E
c3027020   ti_sysbios_hal_Hwi_Instance_finalize__F
c30239c0   ti_sysbios_hal_Hwi_Instance_init__F
c303ab00   ti_sysbios_hal_Hwi_Module__id__C
c303b5a0   ti_sysbios_hal_Hwi_Module__root__V
c3027040   ti_sysbios_hal_Hwi_Module_startup__E
c3027060   ti_sysbios_hal_Hwi_Module_startup__F
c303a368   ti_sysbios_hal_Hwi_Object__DESC__C
c3039da8   ti_sysbios_hal_Hwi_Object__PARAMS__C
c301c180   ti_sysbios_hal_Hwi_Object__create__S
c3023a20   ti_sysbios_hal_Hwi_Object__delete__S
c303c108   ti_sysbios_hal_Hwi_Object__table__V
c3027080   ti_sysbios_hal_Hwi_Params__init__S
c3021e20   ti_sysbios_hal_Hwi_checkStack
c30270a0   ti_sysbios_hal_Hwi_enableInterrupt__E
c3021ea0   ti_sysbios_hal_Hwi_initStack
c30270c0   ti_sysbios_hal_Hwi_startup__E
c303b5ac   ti_sysbios_hal_Timer_Module__root__V
c3024f00   ti_sysbios_hal_Timer_Module__startupDone__F
c30270e0   ti_sysbios_hal_Timer_Module__startupDone__S
c3027100   ti_sysbios_hal_Timer_Module_startup__E
c3027120   ti_sysbios_hal_Timer_Module_startup__F
c303c110   ti_sysbios_hal_Timer_Object__table__V
c3027140   ti_sysbios_hal_Timer_TimerProxy_Module__startupDone__S
c3027160   ti_sysbios_hal_Timer_TimerProxy_getExpiredCounts__E
c3027180   ti_sysbios_hal_Timer_TimerProxy_getPeriod__E
c30271a0   ti_sysbios_hal_Timer_TimerProxy_setNextTick__E
c30271c0   ti_sysbios_hal_Timer_TimerProxy_startup__E
c30271e0   ti_sysbios_hal_Timer_startup__E
c303a9ac   ti_sysbios_heaps_HeapMem_E_memory__C
c3024f40   ti_sysbios_heaps_HeapMem_Handle__label__S
c30282c8   ti_sysbios_heaps_HeapMem_Instance_State_0_buf__A
c3021f20   ti_sysbios_heaps_HeapMem_Instance_init__F
c3027200   ti_sysbios_heaps_HeapMem_Module_GateProxy_enter__E
c3027220   ti_sysbios_heaps_HeapMem_Module_GateProxy_leave__E
c3027240   ti_sysbios_heaps_HeapMem_Module_GateProxy_query__E
c3039e9c   ti_sysbios_heaps_HeapMem_Module__FXNS__C
c303a9b0   ti_sysbios_heaps_HeapMem_Module__gateObj__C
c303ab02   ti_sysbios_heaps_HeapMem_Module__id__C
c303b5b8   ti_sysbios_heaps_HeapMem_Module__root__V
c303a388   ti_sysbios_heaps_HeapMem_Object__DESC__C
c303a010   ti_sysbios_heaps_HeapMem_Object__PARAMS__C
c303a9b4   ti_sysbios_heaps_HeapMem_Object__count__C
c3021fa0   ti_sysbios_heaps_HeapMem_Object__create__S
c3024f80   ti_sysbios_heaps_HeapMem_Object__delete__S
c3024fc0   ti_sysbios_heaps_HeapMem_Object__get__S
c303c048   ti_sysbios_heaps_HeapMem_Object__table__V
c3018200   ti_sysbios_heaps_HeapMem_alloc__E
c3019b60   ti_sysbios_heaps_HeapMem_free__E
c301f600   ti_sysbios_heaps_HeapMem_getStats__E
c3020780   ti_sysbios_heaps_HeapMem_init__I
c3027260   ti_sysbios_heaps_HeapMem_isBlocking__E
c303a9b8   ti_sysbios_heaps_HeapMem_reqAlign__C
c3020820   ti_sysbios_knl_Clock_Instance_init__F
c303a9bc   ti_sysbios_knl_Clock_Module_State_clockQ__O
c303b5c4   ti_sysbios_knl_Clock_Module__root__V
c303b5d0   ti_sysbios_knl_Clock_Module__state__V
c3027280   ti_sysbios_knl_Clock_Module_startup__E
c3022020   ti_sysbios_knl_Clock_Module_startup__F
c303a3a8   ti_sysbios_knl_Clock_Object__DESC__C
c303a034   ti_sysbios_knl_Clock_Object__PARAMS__C
c30208c0   ti_sysbios_knl_Clock_Object__create__S
c30272a0   ti_sysbios_knl_Clock_Params__init__S
c30220a0   ti_sysbios_knl_Clock_doTick__I
c3022120   ti_sysbios_knl_Clock_getTicks__E
c30272c0   ti_sysbios_knl_Clock_logTick__E
c3023a80   ti_sysbios_knl_Clock_setupTimerToSkipTicks__E
c301c280   ti_sysbios_knl_Clock_startI__E
c3025000   ti_sysbios_knl_Clock_start__E
c303a9c0   ti_sysbios_knl_Clock_tickMode__C
c303a9c4   ti_sysbios_knl_Clock_tickPeriod__C
c303a9c8   ti_sysbios_knl_Clock_tickSource__C
c301a720   ti_sysbios_knl_Clock_workFunc__E
c303b5f8   ti_sysbios_knl_Idle_Module__root__V
c303a9d0   ti_sysbios_knl_Idle_coreList__A
c303a860   ti_sysbios_knl_Idle_coreList__C
c303a9d8   ti_sysbios_knl_Idle_funcList__A
c303a868   ti_sysbios_knl_Idle_funcList__C
c30272e0   ti_sysbios_knl_Idle_loop__E
c3020960   ti_sysbios_knl_Idle_run__E
c303b5fa   ti_sysbios_knl_Intrinsics_Module__root__V
c3027300   ti_sysbios_knl_Queue_Instance_init__F
c303b5fc   ti_sysbios_knl_Queue_Module__root__V
c303a3c8   ti_sysbios_knl_Queue_Object__DESC__C
c303a608   ti_sysbios_knl_Queue_Object__PARAMS__C
c30221a0   ti_sysbios_knl_Queue_Object__create__S
c3027320   ti_sysbios_knl_Queue_Object__destruct__S
c3027340   ti_sysbios_knl_Queue_Object__get__S
c3027360   ti_sysbios_knl_Queue_empty__E
c3025040   ti_sysbios_knl_Queue_put__E
c303a9cc   ti_sysbios_knl_Semaphore_Instance_State_pendQ__O
c3027380   ti_sysbios_knl_Semaphore_Instance_finalize__F
c3023ae0   ti_sysbios_knl_Semaphore_Instance_init__F
c303b608   ti_sysbios_knl_Semaphore_Module__root__V
c303a3e8   ti_sysbios_knl_Semaphore_Object__DESC__C
c303a058   ti_sysbios_knl_Semaphore_Object__PARAMS__C
c3022220   ti_sysbios_knl_Semaphore_Object__create__S
c3023b40   ti_sysbios_knl_Semaphore_Object__delete__S
c3025080   ti_sysbios_knl_Semaphore_Object__destruct__S
c30273a0   ti_sysbios_knl_Semaphore_Params__init__S
c3020a00   ti_sysbios_knl_Semaphore_pendTimeout__I
c300fea0   ti_sysbios_knl_Semaphore_pend__E
c301c380   ti_sysbios_knl_Semaphore_post__E
c30273c0   ti_sysbios_knl_Swi_Instance_finalize__F
c301f6c0   ti_sysbios_knl_Swi_Instance_init__F
c303bc78   ti_sysbios_knl_Swi_Module_State_0_readyQ__A
c303b614   ti_sysbios_knl_Swi_Module__root__V
c303b620   ti_sysbios_knl_Swi_Module__state__V
c30273e0   ti_sysbios_knl_Swi_Module_startup__E
c3023ba0   ti_sysbios_knl_Swi_Module_startup__F
c303a408   ti_sysbios_knl_Swi_Object__DESC__C
c3039ec4   ti_sysbios_knl_Swi_Object__PARAMS__C
c303a9d4   ti_sysbios_knl_Swi_Object__count__C
c301c480   ti_sysbios_knl_Swi_Object__create__S
c30250c0   ti_sysbios_knl_Swi_Object__destruct__S
c3025100   ti_sysbios_knl_Swi_Object__get__S
c303bef8   ti_sysbios_knl_Swi_Object__table__V
c3027400   ti_sysbios_knl_Swi_Params__init__S
c3027420   ti_sysbios_knl_Swi_disable__E
c303a9dc   ti_sysbios_knl_Swi_numPriorities__C
c30222a0   ti_sysbios_knl_Swi_post__E
c301c580   ti_sysbios_knl_Swi_restoreHwi__E
c3020aa0   ti_sysbios_knl_Swi_restore__E
c301f780   ti_sysbios_knl_Swi_run__I
c3018380   ti_sysbios_knl_Swi_schedule__I
c3027440   ti_sysbios_knl_Swi_startup__E
c303a9e0   ti_sysbios_knl_Task_E_deleteNotAllowed__C
c303a9e4   ti_sysbios_knl_Task_E_spOutOfBounds__C
c303a9e8   ti_sysbios_knl_Task_E_stackOverflow__C
c30302c8   ti_sysbios_knl_Task_Instance_State_0_hookEnv__A
c3034da0   ti_sysbios_knl_Task_Instance_State_0_stack__A
c30101a0   ti_sysbios_knl_Task_Instance_finalize__F
c3015dc0   ti_sysbios_knl_Task_Instance_init__F
c303c138   ti_sysbios_knl_Task_Module_State_0_idleTask__A
c303bcf8   ti_sysbios_knl_Task_Module_State_0_readyQ__A
c303a9ec   ti_sysbios_knl_Task_Module_State_inactiveQ__O
c303a9f0   ti_sysbios_knl_Task_Module_State_terminatedQ__O
c303ab04   ti_sysbios_knl_Task_Module__id__C
c303b63c   ti_sysbios_knl_Task_Module__root__V
c303b648   ti_sysbios_knl_Task_Module__state__V
c3027460   ti_sysbios_knl_Task_Module_startup__E
c3019ca0   ti_sysbios_knl_Task_Module_startup__F
c303a428   ti_sysbios_knl_Task_Object__DESC__C
c3039b48   ti_sysbios_knl_Task_Object__PARAMS__C
c303a9f4   ti_sysbios_knl_Task_Object__count__C
c301c680   ti_sysbios_knl_Task_Object__create__S
c3027480   ti_sysbios_knl_Task_Object__first__S
c3025140   ti_sysbios_knl_Task_Object__get__S
c303a9f8   ti_sysbios_knl_Task_Object__heap__C
c30274a0   ti_sysbios_knl_Task_Object__next__S
c303bdd8   ti_sysbios_knl_Task_Object__table__V
c30274c0   ti_sysbios_knl_Task_Params__init__S
c30274e0   ti_sysbios_knl_Task_SupportProxy_Module__startupDone__S
c3027500   ti_sysbios_knl_Task_SupportProxy_checkStack__E
c3027520   ti_sysbios_knl_Task_SupportProxy_getStackAlignment__E
c3027540   ti_sysbios_knl_Task_SupportProxy_start__E
c3027560   ti_sysbios_knl_Task_SupportProxy_swap__E
c303a9fc   ti_sysbios_knl_Task_allBlockedFunc__C
c301f840   ti_sysbios_knl_Task_allBlockedFunction__I
c3015fa0   ti_sysbios_knl_Task_checkStacks__E
c303aa00   ti_sysbios_knl_Task_defaultStackHeap__C
c303aa04   ti_sysbios_knl_Task_defaultStackSize__C
c303ab06   ti_sysbios_knl_Task_deleteTerminatedTasks__C
c3027580   ti_sysbios_knl_Task_disable__E
c3023c00   ti_sysbios_knl_Task_enter__I
c3016a40   ti_sysbios_knl_Task_exit__E
c30275a0   ti_sysbios_knl_Task_getPri__E
c303a620   ti_sysbios_knl_Task_hooks__A
c303a870   ti_sysbios_knl_Task_hooks__C
c303ab08   ti_sysbios_knl_Task_initStackFlag__C
c303aa08   ti_sysbios_knl_Task_numConstructedTasks__C
c3016c00   ti_sysbios_knl_Task_postInit__I
c3022320   ti_sysbios_knl_Task_processVitalTaskFlag__I
c30223a0   ti_sysbios_knl_Task_restoreHwi__E
c3022420   ti_sysbios_knl_Task_restore__E
c3018d60   ti_sysbios_knl_Task_schedule__I
c30275c0   ti_sysbios_knl_Task_self__E
c3018500   ti_sysbios_knl_Task_setPri__E
c3023c60   ti_sysbios_knl_Task_sleepTimeout__I
c3019de0   ti_sysbios_knl_Task_sleep__E
c3018ec0   ti_sysbios_knl_Task_startCore__E
c30275e0   ti_sysbios_knl_Task_startup__E
c301e0c0   ti_sysbios_knl_Task_unblockI__E
c30224a0   ti_sysbios_knl_Task_yield__E
c3025180   ti_sysbios_syncs_SyncSem_Handle__label__S
c3027600   ti_sysbios_syncs_SyncSem_Instance_finalize__F
c301f900   ti_sysbios_syncs_SyncSem_Instance_init__F
c303a07c   ti_sysbios_syncs_SyncSem_Module__FXNS__C
c303b68c   ti_sysbios_syncs_SyncSem_Module__root__V
c303a448   ti_sysbios_syncs_SyncSem_Object__DESC__C
c303a528   ti_sysbios_syncs_SyncSem_Object__PARAMS__C
c301e1a0   ti_sysbios_syncs_SyncSem_Object__create__S
c3023cc0   ti_sysbios_syncs_SyncSem_Object__delete__S
c3027620   ti_sysbios_syncs_SyncSem_query__E
c3027640   ti_sysbios_syncs_SyncSem_query__F
c3027660   ti_sysbios_syncs_SyncSem_signal__E
c3027680   ti_sysbios_syncs_SyncSem_signal__F
c30276a0   ti_sysbios_syncs_SyncSem_wait__E
c3020b40   ti_sysbios_syncs_SyncSem_wait__F
c303aa0c   ti_sysbios_timers_timer64_Timer_E_cannotSupport__C
c303aa10   ti_sysbios_timers_timer64_Timer_E_invalidTimer__C
c303aa14   ti_sysbios_timers_timer64_Timer_E_notAvailable__C
c3020be0   ti_sysbios_timers_timer64_Timer_Instance_finalize__F
c300a300   ti_sysbios_timers_timer64_Timer_Instance_init__F
c303bd78   ti_sysbios_timers_timer64_Timer_Module_State_0_device__A
c303bf98   ti_sysbios_timers_timer64_Timer_Module_State_0_gctrl__A
c303bfb8   ti_sysbios_timers_timer64_Timer_Module_State_0_handles__A
c303bfd8   ti_sysbios_timers_timer64_Timer_Module_State_0_intFreqs__A
c303ab0a   ti_sysbios_timers_timer64_Timer_Module__id__C
c303b698   ti_sysbios_timers_timer64_Timer_Module__root__V
c30251c0   ti_sysbios_timers_timer64_Timer_Module__startupDone__F
c30276c0   ti_sysbios_timers_timer64_Timer_Module__startupDone__S
c303b6a4   ti_sysbios_timers_timer64_Timer_Module__state__V
c30276e0   ti_sysbios_timers_timer64_Timer_Module_startup__E
c30115a0   ti_sysbios_timers_timer64_Timer_Module_startup__F
c303a468   ti_sysbios_timers_timer64_Timer_Object__DESC__C
c30399b8   ti_sysbios_timers_timer64_Timer_Object__PARAMS__C
c301c780   ti_sysbios_timers_timer64_Timer_Object__create__S
c3023d20   ti_sysbios_timers_timer64_Timer_Object__delete__S
c303be28   ti_sysbios_timers_timer64_Timer_Object__table__V
c3027700   ti_sysbios_timers_timer64_Timer_Params__init__S
c3027720   ti_sysbios_timers_timer64_Timer_TimerSupportProxy_enable__E
c303aa18   ti_sysbios_timers_timer64_Timer_anyMask__C
c303aa1c   ti_sysbios_timers_timer64_Timer_defaultHalf__C
c3011b00   ti_sysbios_timers_timer64_Timer_deviceConfig__I
c303aa20   ti_sysbios_timers_timer64_Timer_freqDivisor__C
c3022520   ti_sysbios_timers_timer64_Timer_getExpiredCounts__E
c30225a0   ti_sysbios_timers_timer64_Timer_getPeriod__E
c301c880   ti_sysbios_timers_timer64_Timer_initDevice__I
c303aa24   ti_sysbios_timers_timer64_Timer_numLocalTimers__C
c303aa28   ti_sysbios_timers_timer64_Timer_numTimerDevices__C
c3027740   ti_sysbios_timers_timer64_Timer_setNextTick__E
c30133a0   ti_sysbios_timers_timer64_Timer_setPeriodMicroSecs__E
c30172c0   ti_sysbios_timers_timer64_Timer_start__E
c303ab0c   ti_sysbios_timers_timer64_Timer_startupNeeded__C
c301f9c0   ti_sysbios_timers_timer64_Timer_startup__E
c3020c80   ti_sysbios_timers_timer64_Timer_stop__E
c303aa2c   ti_sysbios_xdcruntime_GateThreadSupport_Instance_State_gate__O
c3027760   ti_sysbios_xdcruntime_GateThreadSupport_Instance_finalize__F
c3025200   ti_sysbios_xdcruntime_GateThreadSupport_Instance_init__F
c303b6b8   ti_sysbios_xdcruntime_GateThreadSupport_Module__root__V
c303a488   ti_sysbios_xdcruntime_GateThreadSupport_Object__DESC__C
c303a638   ti_sysbios_xdcruntime_GateThreadSupport_Object__PARAMS__C
c3022620   ti_sysbios_xdcruntime_GateThreadSupport_Object__create__S
c3023d80   ti_sysbios_xdcruntime_GateThreadSupport_Object__delete__S
c3027780   ti_sysbios_xdcruntime_GateThreadSupport_enter__E
c30277a0   ti_sysbios_xdcruntime_GateThreadSupport_enter__F
c30277c0   ti_sysbios_xdcruntime_GateThreadSupport_leave__E
c30277e0   ti_sysbios_xdcruntime_GateThreadSupport_leave__F
c3027800   ti_sysbios_xdcruntime_GateThreadSupport_query__E
c3027820   ti_sysbios_xdcruntime_GateThreadSupport_query__F
c3023de0   ti_syslink_ipc_rtos_Syslink_attach
c3025240   ti_syslink_ipc_rtos_Syslink_detach
c303d360   tickets
c303d368   towards
c3023e40   writemsg
c303aa30   xdc_runtime_Assert_E_assertFailed__C
c3020d20   xdc_runtime_Assert_raise__I
c303aa34   xdc_runtime_Core_A_initializedParams__C
c303aa38   xdc_runtime_Core_Module__diagsEnabled__C
c303aa3c   xdc_runtime_Core_Module__diagsIncluded__C
c303aa40   xdc_runtime_Core_Module__diagsMask__C
c303ab0e   xdc_runtime_Core_Module__id__C
c30226a0   xdc_runtime_Core_assignLabel__I
c3022720   xdc_runtime_Core_assignParams__I
c3014a20   xdc_runtime_Core_createObject__I
c301c980   xdc_runtime_Core_deleteObject__I
c303b6c4   xdc_runtime_Defaults_Module__root__V
c303aa44   xdc_runtime_Diags_dictBase__C
c303b930   xdc_runtime_Diags_dictElems
c303ab10   xdc_runtime_Diags_setMaskEnabled__C
c3027840   xdc_runtime_Diags_setMask__E
c300f1e0   xdc_runtime_Diags_setMask__F
c303aa48   xdc_runtime_Error_E_memory__C
c303aa4c   xdc_runtime_Error_Module__diagsEnabled__C
c303aa50   xdc_runtime_Error_Module__diagsIncluded__C
c303aa54   xdc_runtime_Error_Module__diagsMask__C
c303ab12   xdc_runtime_Error_Module__loggerDefined__C
c303aa58   xdc_runtime_Error_Module__loggerFxn8__C
c303aa5c   xdc_runtime_Error_Module__loggerObj__C
c303b6c6   xdc_runtime_Error_Module__root__V
c303b6c8   xdc_runtime_Error_Module__state__V
c3027860   xdc_runtime_Error_check__E
c3025280   xdc_runtime_Error_check__F
c3027880   xdc_runtime_Error_init__E
c30252c0   xdc_runtime_Error_init__F
c303ab14   xdc_runtime_Error_maxDepth__C
c303aa60   xdc_runtime_Error_policy__C
c30278a0   xdc_runtime_Error_print__E
c301e280   xdc_runtime_Error_print__F
c303aa64   xdc_runtime_Error_raiseHook__C
c30278c0   xdc_runtime_Error_raiseX__E
c30127a0   xdc_runtime_Error_raiseX__F
c3025300   xdc_runtime_GateNull_Handle__label__S
c303a0a0   xdc_runtime_GateNull_Module__FXNS__C
c303b6cc   xdc_runtime_GateNull_Module__root__V
c303a4a8   xdc_runtime_GateNull_Object__DESC__C
c303a650   xdc_runtime_GateNull_Object__PARAMS__C
c3023ea0   xdc_runtime_GateNull_Object__create__S
c3025340   xdc_runtime_GateNull_Object__delete__S
c303c140   xdc_runtime_GateNull_Object__table__V
c30278e0   xdc_runtime_GateNull_enter__E
c3027900   xdc_runtime_GateNull_enter__F
c3027920   xdc_runtime_GateNull_leave__E
c3027940   xdc_runtime_GateNull_leave__F
c3027960   xdc_runtime_GateNull_query__E
c3027980   xdc_runtime_GateNull_query__F
c30279a0   xdc_runtime_Gate_enterSystem__E
c30279c0   xdc_runtime_Gate_enterSystem__F
c30279e0   xdc_runtime_Gate_leaveSystem__E
c3027a00   xdc_runtime_Gate_leaveSystem__F
c303aa68   xdc_runtime_IFilterLogger_Interface__BASE__C
c303aa6c   xdc_runtime_IGateProvider_Interface__BASE__C
c303aa70   xdc_runtime_IHeap_Interface__BASE__C
c303aa74   xdc_runtime_ILogger_Interface__BASE__C
c303aa78   xdc_runtime_IModule_Interface__BASE__C
c303aa7c   xdc_runtime_Log_L_error__C
c303aa80   xdc_runtime_LoggerBuf_E_badLevel__C
c3025380   xdc_runtime_LoggerBuf_Handle__label__S
c30302d0   xdc_runtime_LoggerBuf_Instance_State_0_entryArr__A
c30253c0   xdc_runtime_LoggerBuf_Instance_finalize__F
c301fa80   xdc_runtime_LoggerBuf_Instance_init__F
c3027a60   xdc_runtime_LoggerBuf_Module_GateProxy_enter__E
c3027a80   xdc_runtime_LoggerBuf_Module_GateProxy_leave__E
c3039b84   xdc_runtime_LoggerBuf_Module__FXNS__C
c303aa84   xdc_runtime_LoggerBuf_Module__gateObj__C
c303ab16   xdc_runtime_LoggerBuf_Module__id__C
c303b6d4   xdc_runtime_LoggerBuf_Module__root__V
c303b6dc   xdc_runtime_LoggerBuf_Module__state__V
c3027aa0   xdc_runtime_LoggerBuf_Module_startup__E
c3020dc0   xdc_runtime_LoggerBuf_Module_startup__F
c303a4c8   xdc_runtime_LoggerBuf_Object__DESC__C
c3039eec   xdc_runtime_LoggerBuf_Object__PARAMS__C
c303aa88   xdc_runtime_LoggerBuf_Object__count__C
c301e360   xdc_runtime_LoggerBuf_Object__create__S
c3023f00   xdc_runtime_LoggerBuf_Object__delete__S
c3025400   xdc_runtime_LoggerBuf_Object__get__S
c303bf50   xdc_runtime_LoggerBuf_Object__table__V
c3027ac0   xdc_runtime_LoggerBuf_TimestampProxy_get64__E
c3027ae0   xdc_runtime_LoggerBuf_disable__E
c3027b00   xdc_runtime_LoggerBuf_disable__F
c3027b20   xdc_runtime_LoggerBuf_enable__E
c3027b40   xdc_runtime_LoggerBuf_enable__F
c303ab18   xdc_runtime_LoggerBuf_filterByLevel__C
c30227a0   xdc_runtime_LoggerBuf_filterOutEvent__I
c3027b60   xdc_runtime_LoggerBuf_getFilterLevel__E
c301ca80   xdc_runtime_LoggerBuf_getFilterLevel__F
c3027b80   xdc_runtime_LoggerBuf_setFilterLevel__E
c301a840   xdc_runtime_LoggerBuf_setFilterLevel__F
c303aa8c   xdc_runtime_LoggerBuf_statusLogger__C
c3027ba0   xdc_runtime_LoggerBuf_write0__E
c3025440   xdc_runtime_LoggerBuf_write0__F
c3027bc0   xdc_runtime_LoggerBuf_write1__E
c3027be0   xdc_runtime_LoggerBuf_write1__F
c3027c00   xdc_runtime_LoggerBuf_write2__E
c3027c20   xdc_runtime_LoggerBuf_write2__F
c3027c40   xdc_runtime_LoggerBuf_write4__E
c3017460   xdc_runtime_LoggerBuf_write4__F
c3025480   xdc_runtime_LoggerBuf_write8__E
c3014180   xdc_runtime_LoggerBuf_write8__F
c303b6e2   xdc_runtime_Main_Module__root__V
c3027c60   xdc_runtime_Memory_HeapProxy_alloc__E
c3027c80   xdc_runtime_Memory_HeapProxy_free__E
c303ab1a   xdc_runtime_Memory_Module__id__C
c303b6e4   xdc_runtime_Memory_Module__state__V
c3027ca0   xdc_runtime_Memory_alloc__E
c301e440   xdc_runtime_Memory_alloc__F
c3027cc0   xdc_runtime_Memory_calloc__E
c3023f60   xdc_runtime_Memory_calloc__F
c303aa90   xdc_runtime_Memory_defaultHeapInstance__C
c3027ce0   xdc_runtime_Memory_free__E
c30254c0   xdc_runtime_Memory_free__F
c3027d00   xdc_runtime_Memory_getMaxDefaultTypeAlign__E
c3027d20   xdc_runtime_Memory_getMaxDefaultTypeAlign__F
c3027d40   xdc_runtime_Memory_valloc__E
c3023fc0   xdc_runtime_Memory_valloc__F
c303aa94   xdc_runtime_Registry_Module__diagsEnabled__C
c303aa98   xdc_runtime_Registry_Module__diagsIncluded__C
c303aa9c   xdc_runtime_Registry_Module__diagsMask__C
c303ab1c   xdc_runtime_Registry_Module__loggerDefined__C
c303aaa0   xdc_runtime_Registry_Module__loggerFxn1__C
c303aaa4   xdc_runtime_Registry_Module__loggerFxn2__C
c303aaa8   xdc_runtime_Registry_Module__loggerFxn4__C
c303aaac   xdc_runtime_Registry_Module__loggerObj__C
c303b6e8   xdc_runtime_Registry_Module__root__V
c303b6ec   xdc_runtime_Registry_Module__state__V
c301e520   xdc_runtime_Registry_addModule__E
c3020e60   xdc_runtime_Registry_addModule__F
c301fb40   xdc_runtime_Registry_findById__E
c3025500   xdc_runtime_Registry_findById__F
c301e600   xdc_runtime_Registry_findByNamePattern__E
c3022820   xdc_runtime_Registry_findByNamePattern__F
c3020f00   xdc_runtime_Registry_findByName__F
c30228a0   xdc_runtime_Registry_matchPattern__I
c3027d60   xdc_runtime_Startup_Module__startupDone__S
c303b6f4   xdc_runtime_Startup_Module__state__V
00000001   xdc_runtime_Startup__EXECFXN__C
00000001   xdc_runtime_Startup__RESETFXN__C
c303aab0   xdc_runtime_Startup_execImpl__C
c3027d80   xdc_runtime_Startup_exec__E
c301cb80   xdc_runtime_Startup_exec__F
c3027da0   xdc_runtime_Startup_exec__I
c303a878   xdc_runtime_Startup_firstFxns__A
c303a880   xdc_runtime_Startup_firstFxns__C
c303aab8   xdc_runtime_Startup_lastFxns__A
c303a888   xdc_runtime_Startup_lastFxns__C
c303aab4   xdc_runtime_Startup_maxPasses__C
c3027dc0   xdc_runtime_Startup_reset__I
c303a4e8   xdc_runtime_Startup_sfxnRts__A
c303aabc   xdc_runtime_Startup_sfxnRts__C
c3039b08   xdc_runtime_Startup_sfxnTab__A
c303aac0   xdc_runtime_Startup_sfxnTab__C
c3013600   xdc_runtime_Startup_startMods__I
c30312d0   xdc_runtime_SysMin_Module_State_0_outbuf__A
c303b6fc   xdc_runtime_SysMin_Module__state__V
c3027de0   xdc_runtime_SysMin_Module_startup__E
c3024020   xdc_runtime_SysMin_Module_startup__F
c3027e00   xdc_runtime_SysMin_abort__E
c3020fa0   xdc_runtime_SysMin_abort__F
c303aac4   xdc_runtime_SysMin_bufSize__C
c3027e20   xdc_runtime_SysMin_exit__E
c3024080   xdc_runtime_SysMin_exit__F
c303ab1e   xdc_runtime_SysMin_flushAtExit__C
c3021040   xdc_runtime_SysMin_flush__F
c303aac8   xdc_runtime_SysMin_outputFunc__C
c30240e0   xdc_runtime_SysMin_output__I
c3027e40   xdc_runtime_SysMin_putch__E
c30210e0   xdc_runtime_SysMin_putch__F
c3027e60   xdc_runtime_SysMin_ready__E
c3027e80   xdc_runtime_SysMin_ready__F
c3027ea0   xdc_runtime_System_Module_GateProxy_enter__E
c3027ec0   xdc_runtime_System_Module_GateProxy_leave__E
c303bff8   xdc_runtime_System_Module_State_0_atexitHandlers__A
c303aacc   xdc_runtime_System_Module__gateObj__C
c303b708   xdc_runtime_System_Module__state__V
c3027ee0   xdc_runtime_System_Module_startup__E
c3027f00   xdc_runtime_System_Module_startup__F
c3027f20   xdc_runtime_System_SupportProxy_abort__E
c3027f40   xdc_runtime_System_SupportProxy_exit__E
c3027f60   xdc_runtime_System_SupportProxy_putch__E
c3027f80   xdc_runtime_System_SupportProxy_ready__E
c3027fa0   xdc_runtime_System_abort__E
c3025540   xdc_runtime_System_abort__F
c3025580   xdc_runtime_System_aprintf__E
c3024140   xdc_runtime_System_aprintf_va__F
c3027fc0   xdc_runtime_System_atexit__E
c3022920   xdc_runtime_System_atexit__F
c3007de0   xdc_runtime_System_doPrint__I
c3027fe0   xdc_runtime_System_exit__E
c3028000   xdc_runtime_System_exit__F
c303aad0   xdc_runtime_System_extendFxn__C
c301fc00   xdc_runtime_System_formatNum__I
c3028020   xdc_runtime_System_lastFxn__I
c303aad4   xdc_runtime_System_maxAtexitHandlers__C
c3013860   xdc_runtime_System_printfExtend__I
c30255c0   xdc_runtime_System_printf__E
c30241a0   xdc_runtime_System_printf_va__F
c30229a0   xdc_runtime_System_putchar__I
c3022a20   xdc_runtime_System_rtsExit__I
c3028040   xdc_runtime_System_vsnprintf__E
c3028060   xdc_runtime_System_vsnprintf__F
c303b714   xdc_runtime_Text_Module__state__V
c303ab20   xdc_runtime_Text_charCnt__C
c3035678   xdc_runtime_Text_charTab__A
c303aad8   xdc_runtime_Text_charTab__C
c3028080   xdc_runtime_Text_cordText__E
c3024200   xdc_runtime_Text_cordText__F
c303ab22   xdc_runtime_Text_isLoaded__C
c30280a0   xdc_runtime_Text_matchRope__E
c3025600   xdc_runtime_Text_matchRope__F
c301fcc0   xdc_runtime_Text_matchVisFxn__I
c303aadc   xdc_runtime_Text_nameEmpty__C
c303aae0   xdc_runtime_Text_nameStatic__C
c303aae4   xdc_runtime_Text_nameUnknown__C
c30395d8   xdc_runtime_Text_nodeTab__A
c303aae8   xdc_runtime_Text_nodeTab__C
c3022aa0   xdc_runtime_Text_printVisFxn__I
c30280c0   xdc_runtime_Text_putLab__E
c3019f20   xdc_runtime_Text_putLab__F
c301a960   xdc_runtime_Text_putMod__F
c30280e0   xdc_runtime_Text_putSite__E
c3016dc0   xdc_runtime_Text_putSite__F
c303ab24   xdc_runtime_Text_registryModsLastId__C
c3028100   xdc_runtime_Text_ropeText__E
c3025640   xdc_runtime_Text_ropeText__F
c303ab26   xdc_runtime_Text_unnamedModsLastId__C
c301cc80   xdc_runtime_Text_visitRope2__I
c303aaec   xdc_runtime_Text_visitRopeFxn__C
c3028120   xdc_runtime_Text_visitRope__I
c3021180   xdc_runtime_Text_xprintf__I
c3025680   xdc_runtime_knl_GateThread_Handle__label__S
c30256c0   xdc_runtime_knl_GateThread_Instance_finalize__F
c3025700   xdc_runtime_knl_GateThread_Instance_init__F
c303a0c4   xdc_runtime_knl_GateThread_Module__FXNS__C
c303b71c   xdc_runtime_knl_GateThread_Module__root__V
c3028140   xdc_runtime_knl_GateThread_Module__startupDone__S
c303a508   xdc_runtime_knl_GateThread_Object__DESC__C
c303a668   xdc_runtime_knl_GateThread_Object__PARAMS__C
c301e6e0   xdc_runtime_knl_GateThread_Object__create__S
c3024260   xdc_runtime_knl_GateThread_Object__delete__S
c3028160   xdc_runtime_knl_GateThread_Proxy_Object__create__S
c3028180   xdc_runtime_knl_GateThread_Proxy_Object__delete__S
c30281a0   xdc_runtime_knl_GateThread_Proxy_enter__E
c30281c0   xdc_runtime_knl_GateThread_Proxy_leave__E
c30281e0   xdc_runtime_knl_GateThread_Proxy_query__E
c3028200   xdc_runtime_knl_GateThread_enter__E
c3028220   xdc_runtime_knl_GateThread_enter__F
c3028240   xdc_runtime_knl_GateThread_leave__E
c3028260   xdc_runtime_knl_GateThread_leave__F
c3028280   xdc_runtime_knl_GateThread_query__E
c30282a0   xdc_runtime_knl_GateThread_query__F
c303aaf0   xdc_runtime_knl_ISync_Interface__BASE__C
c3034d90   ycvalueprt
c303d370   yxstatus
c303565c   yzdata


GLOBAL SYMBOLS: SORTED BY Symbol Address 

address    name
--------   ----
00000001   __TI_args_main
00000001   xdc_runtime_Startup__EXECFXN__C
00000001   xdc_runtime_Startup__RESETFXN__C
00000064   _argsize
00001000   __TI_STACK_SIZE
c3000000   Server_init
c3000000   __ASM__
c3000070   __ISA__
c3000088   __PLAT__
c30000b0   __TARG__
c30000d8   __TRDR__
c30000e0   Message_Send
c3000274   Message_del
c300034c   Notify_del
c30004d4   Stop_IPC
c3000620   Server_exit
c300062c   Server_notifyCB
c30007f8   Init_IPC
c3000a20   ShareRegion_create
c3000f4c   ShareRegion_exec
c3001654   Creat_Message
c3001b84   Syslink_Init
c3001d04   ShareRegion_delete
c30021b8   Message_Task
c3002360   Tempture
c30023a0   Send_CS
c3002580   Reclose_State
c30027ec   Check_GL
c3002d38   Check_LXGL
c30031c8   Check_YUEX
c30033b0   Check_PowerOFF
c300368c   Check_PowerON
c3003900   FA_Task
c3003c74   SumDC
c3003ca0   Q_Value
c3003d10   P_Value
c3003d84   NewTimerInit
c3003eac   GetTempture
c3004640   FFT_Task
c3004960   UARTwrite
c30049e0   UARTprintf
c3004f20   UARTPuts
c3004fec   UARTPutNum
c3005114   UARTPutHexNum
c3005228   UARTGets
c30052b4   UARTGetNum
c3005358   UARTGetHexNum
c30055a0   ti_sdo_ipc_GateMP_Instance_init__F
c30060e0   EMIFAWaitTimingConfig
c3006150   EMIFAWaitPinStatusGet
c3006170   EMIFAWaitPinPolaritySet
c30061ac   EMIFASDRAMTimingConfig
c30061b0   EMIFASDRAMSelfRefModeConfig
c30061c8   EMIFASDRAMSelfRefExitTimeConfig
c30061d4   EMIFASDRAMRefRateSet
c30061e0   EMIFASDRAMRefDurPowDownModeEnable
c30061f0   EMIFASDRAMPowDownModeConfig
c300620c   EMIFASDRAMConfig
c3006228   EMIFARawIntStatusRead
c300626c   EMIFARawIntClear
c30062c0   EMIFANORPageSizeSet
c3006348   EMIFANORPageModeConfig
c30063cc   EMIFANORPageAccessDelaySet
c300644c   EMIFANANDEccValGet
c3006568   EMIFANANDECCStart
c30065f0   EMIFANANDCSSet
c3006660   EMIFANAND4BitEccErrValGet
c30066d8   EMIFANAND4BitEccErrAddrGet
c3006754   EMIFANAND4BitECCStateGet
c3006764   EMIFANAND4BitECCSelect
c30067d4   EMIFANAND4BitECCNumOfErrsGet
c30067e0   EMIFANAND4BitECCLoad
c30067f0   EMIFANAND4BitECCAddrCalcStart
c3006804   EMIFAMskedIntStatusRead
c3006848   EMIFAMskedIntEnable
c30068a0   EMIFAMskedIntDisable
c30068f0   EMIFAMskedIntClear
c3006944   EMIFAModuleIdRead
c300694c   EMIFAMaxExtWaitCycleSet
c300696c   EMIFAExtendedWaitConfig
c3006a00   EMIFACSWaitPinSelect
c3006ac0   EMIFAAsyncDevOpModeSelect
c3006b40   EMIFAAsyncDevDataBusWidthSelect
c3006bc0   ReadConfig
c3007014   Init_ShareAddr
c30070b8   InitAnaInAddr
c30070c0   DigCmdout
c3007300   DigAdjust
c3007540   ti_sysbios_family_c64p_Exception_handler__I
c3007de0   xdc_runtime_System_doPrint__I
c3008680   Ipc_attach
c3008e40   Ipc_detach
c3009540   ti_sdo_ipc_transports_TransportShm_Instance_init__F
c3009c40   TEMP_GPIO_Config
c3009cb0   Receive_Data
c300a094   Measure_Data
c300a114   Convert_Temp12
c300a154   Convert_Temp
c300a194   Convert_Humi8
c300a244   Convert_Humi
c300a300   ti_sysbios_timers_timer64_Timer_Instance_init__F
c300a920   __c6xabi_divd
c300b1e4   AD7606_Init
c300b460   main
c300b510   Init_Conf
c300ba00   ti_sdo_ipc_heaps_HeapBufMP_Instance_init__F
c300bf60   YX_GPIO_Config
c300c0b0   YK_SendOut
c300c16c   YK_GPIO_Config
c300c2c8   LED_SENDOUT
c300c360   LED_GPIO_Config
c300c3d8   Delay
c300c440   ti_sdo_ipc_heaps_HeapMemMP_Instance_init__F
c300c920   ti_sdo_ipc_ListMP_Instance_init__F
c300cde0   ti_sdo_ipc_GateMP_setRegion0Reserved__F
c300d240   ti_sdo_ipc_MessageQ_Instance_init__F
c300d6a0   ti_sdo_ipc_nsremote_NameServerRemoteNotify_get__F
c300db00   ti_sdo_ipc_GateMP_Instance_finalize__F
c300df20   Timer_Init
c300dfec   TimerIsr
c300e114   Timer3Isr
c300e160   Sys_Init
c300e1a4   Sys_Check
c300e200   StartTimer
c300e220   StartClock
c300e240   Clock_Init
c300e320   ti_sdo_ipc_heaps_HeapMemMP_alloc__E
c300e6e0   ti_sdo_ipc_heaps_HeapMemMP_free__E
c300eaa0   NameServer_add
c300ee40   DSPF_sp_fftSPxSP
c300f1e0   xdc_runtime_Diags_setMask__F
c300f560   UARTSpaceAvail
c300f56c   UARTRxErrorGet
c300f578   UARTParityModeSet
c300f5a4   UARTParityModeGet
c300f5b0   UARTModemStatusGet
c300f5c0   UARTModemControlSet
c300f5f0   UARTModemControlGet
c300f600   UARTModemControlClear
c300f624   UARTIntStatus
c300f62c   UARTIntEnable
c300f648   UARTIntDisable
c300f668   UARTFIFOLevelSet
c300f678   UARTFIFOEnable
c300f684   UARTFIFODisable
c300f68c   UARTEnable
c300f698   UARTDisable
c300f6b4   UARTDMAEnable
c300f6c4   UARTDMADisable
c300f6d0   UARTConfigSetExpClk
c300f768   UARTConfigGetExpClk
c300f7c0   UARTCharsAvail
c300f7cc   UARTCharPutNonBlocking
c300f7e4   UARTCharPut
c300f828   UARTCharGetNonBlocking
c300f840   UARTCharGet
c300f870   UARTBreakCtl
c300f8a0   Ipc_writeConfig
c300fba0   ti_sdo_ipc_heaps_HeapBufMP_postInit__I
c300fea0   ti_sysbios_knl_Semaphore_pend__E
c30101a0   ti_sysbios_knl_Task_Instance_finalize__F
c30104a0   ListMP_getHead
c3010780   ChangeLED
c30107c8   Collect_Task
c3010a60   ti_sdo_ipc_Ipc_procSyncStart__I
c3010d40   ti_sdo_ipc_nsremote_NameServerRemoteNotify_Instance_init__F
c3011020   NameServer_get
c30112e0   GPIOPinWrite
c301132c   GPIOPinRead
c3011360   GPIOPinIntStatus
c3011390   GPIOPinIntClear
c30113b4   GPIOIntTypeSet
c3011450   GPIOIntTypeGet
c3011494   GPIODirModeSet
c30114f0   GPIODirModeGet
c3011520   GPIOBankPinsWrite
c3011560   GPIOBankIntEnable
c3011578   GPIOBankIntDisable
c30115a0   ti_sysbios_timers_timer64_Timer_Module_startup__F
c3011860   ti_sdo_ipc_transports_TransportShm_Instance_finalize__F
c3011b00   ti_sysbios_timers_timer64_Timer_deviceConfig__I
c3011da0   ListMP_putTail
c3012020   ListMP_remove
c30122a0   __c6xabi_divf
c3012520   ti_sdo_ipc_gates_GatePeterson_Instance_init__F
c30127a0   xdc_runtime_Error_raiseX__F
c3012a20   GateMP_openByAddr
c3012c80   Ipc_start
c3012ee0   __c6xabi_divull
c3013140   ti_sysbios_family_c64p_Exception_internalHandler__I
c30133a0   ti_sysbios_timers_timer64_Timer_setPeriodMicroSecs__E
c3013600   xdc_runtime_Startup_startMods__I
c3013860   xdc_runtime_System_printfExtend__I
c3013ac0   Notify_unregisterEvent
c3013d00   ti_sdo_ipc_family_da830_NotifySetup_attach__E
c3013f40   ti_sdo_ipc_heaps_HeapMemMP_getStats__E
c3014180   xdc_runtime_LoggerBuf_write8__F
c30143c0   ti_sdo_ipc_nsremote_NameServerRemoteNotify_swiFxn__I
c30145e0   ti_sysbios_family_c64p_Hwi_reconfig__E
c3014800   ti_sysbios_gates_GateMutexPri_enter__E
c3014a20   xdc_runtime_Core_createObject__I
c3014c40   ti_sysbios_family_c64p_Hwi_dispatchAlways
c3014e40   ti_sdo_ipc_Ipc_procSyncFinish__I
c3015040   ti_sdo_ipc_heaps_HeapBufMP_alloc__E
c3015240   ti_sdo_ipc_notifyDrivers_NotifyDriverShm_Instance_init__F
c3015440   ti_sdo_ipc_notifyDrivers_NotifyDriverShm_sendEvent__E
c3015640   GateMP_sharedMemReq
c3015820   ListMP_openByAddr
c3015a00   GPIOBank0Pin0PinMuxSetup
c3015a38   GPIOBank0Pin1PinMuxSetup
c3015a74   GPIOBank0Pin2PinMuxSetup
c3015ab0   GPIOBank0Pin5PinMuxSetup
c3015aec   GPIOBank0Pin6PinMuxSetup
c3015b28   GPIOBank6Pin1PinMuxSetup
c3015b64   GPIOBank6Pin12PinMuxSetup
c3015ba0   GPIOBank6Pin13PinMuxSetup
c3015be0   ti_sysbios_family_c64p_Exception_externalHandler__I
c3015dc0   ti_sysbios_knl_Task_Instance_init__F
c3015fa0   ti_sysbios_knl_Task_checkStacks__E
c3016180   atan2sp
c3016340   ti_sdo_ipc_GateMP_getFreeResource__I
c3016500   ti_sdo_ipc_heaps_HeapMemMP_postInit__I
c30166c0   ti_sysbios_family_c64p_Cache_block__I
c3016880   ti_sysbios_family_c64p_Exception_decodeMpfsr__I
c3016a40   ti_sysbios_knl_Task_exit__E
c3016c00   ti_sysbios_knl_Task_postInit__I
c3016dc0   xdc_runtime_Text_putSite__F
c3016f80   ti_sdo_ipc_notifyDrivers_NotifyDriverShm_registerEvent__E
c3017120   ti_sdo_ipc_notifyDrivers_NotifyDriverShm_unregisterEvent__E
c30172c0   ti_sysbios_timers_timer64_Timer_start__E
c3017460   xdc_runtime_LoggerBuf_write4__F
c3017600   HeapBufMP_sharedMemReq
c3017780   NameServer_getHandle
c3017900   UARTPinMuxSetup
c3017a80   PSCModuleControl
c3017c00   ti_sysbios_family_c64p_Exception_dispatch__E
c3017d80   ti_sdo_ipc_gates_GatePeterson_enter__E
c3017f00   ti_sdo_ipc_heaps_HeapBufMP_Instance_finalize__F
c3018080   ti_sdo_ipc_notifyDrivers_NotifyDriverShm_isr__I
c3018200   ti_sysbios_heaps_HeapMem_alloc__E
c3018380   ti_sysbios_knl_Swi_schedule__I
c3018500   ti_sysbios_knl_Task_setPri__E
c3018680   ti_sdo_ipc_GateMP_openRegion0Reserved__F
c30187e0   ti_sdo_ipc_ListMP_Instance_finalize__F
c3018940   ti_sdo_ipc_Notify_Instance_init__F
c3018aa0   ti_sdo_ipc_heaps_HeapMemMP_Instance_finalize__F
c3018c00   ti_sdo_utils_NameServer_removeLocal__I
c3018d60   ti_sysbios_knl_Task_schedule__I
c3018ec0   ti_sysbios_knl_Task_startCore__E
c3019020   HeapBufMP_openByAddr
c3019160   HeapMemMP_openByAddr
c30192a0   MessageQ_put
c30193e0   Notify_registerEvent
c3019520   _auto_init_elf
c3019660   ti_sdo_ipc_SharedRegion_start__F
c30197a0   ti_sdo_ipc_notifyDrivers_NotifyDriverShm_disableEvent__E
c30198e0   ti_sdo_ipc_transports_TransportShm_openByAddr__F
c3019a20   ti_sdo_ipc_transports_TransportShm_put__E
c3019b60   ti_sysbios_heaps_HeapMem_free__E
c3019ca0   ti_sysbios_knl_Task_Module_startup__F
c3019de0   ti_sysbios_knl_Task_sleep__E
c3019f20   xdc_runtime_Text_putLab__F
c301a060   HeapMemMP_sharedMemReq
c301a180   cossp
c301a2b4   sinsp
c301a3c0   ti_sdo_ipc_MessageQ_Module_startup__F
c301a4e0   ti_sdo_ipc_transports_TransportShm_sharedMemReq__F
c301a600   ti_sysbios_family_c64p_Exception_Module_startup__F
c301a720   ti_sysbios_knl_Clock_workFunc__E
c301a840   xdc_runtime_LoggerBuf_setFilterLevel__F
c301a960   xdc_runtime_Text_putMod__F
c301aa80   EMIFAPinMuxSetup
c301ab80   HeapBufMP_open
c301ac80   ListMP_sharedMemReq
c301ad80   Notify_registerEventSingle
c301ae80   Notify_sendEvent
c301af80   Notify_unregisterEventSingle
c301b080   ti_sdo_ipc_GateMP_start__F
c301b180   ti_sdo_ipc_MessageQ_Instance_finalize__F
c301b280   ti_sdo_ipc_MessageQ_Object__create__S
c301b380   ti_sdo_ipc_Notify_Instance_finalize__F
c301b480   ti_sdo_ipc_Notify_Object__create__S
c301b580   ti_sdo_ipc_SharedRegion_attach__F
c301b680   ti_sdo_ipc_SharedRegion_clearReservedMemory__F
c301b780   ti_sdo_ipc_gates_GatePeterson_Object__create__S
c301b880   ti_sdo_ipc_nsremote_NameServerRemoteNotify_Instance_finalize__F
c301b980   ti_sdo_ipc_nsremote_NameServerRemoteNotify_Object__create__S
c301ba80   ti_sdo_ipc_transports_TransportShmSetup_attach__E
c301bb80   ti_sdo_ipc_transports_TransportShm_Object__create__S
c301bc80   ti_sdo_utils_NameServer_findLocal__I
c301bd80   ti_sysbios_family_c64p_Hwi_Module_startup__F
c301be80   ti_sysbios_family_c64p_Hwi_Object__create__S
c301bf80   ti_sysbios_family_c64p_Hwi_dispatchC__I
c301c080   ti_sysbios_gates_GateMutexPri_leave__E
c301c180   ti_sysbios_hal_Hwi_Object__create__S
c301c280   ti_sysbios_knl_Clock_startI__E
c301c380   ti_sysbios_knl_Semaphore_post__E
c301c480   ti_sysbios_knl_Swi_Object__create__S
c301c580   ti_sysbios_knl_Swi_restoreHwi__E
c301c680   ti_sysbios_knl_Task_Object__create__S
c301c780   ti_sysbios_timers_timer64_Timer_Object__create__S
c301c880   ti_sysbios_timers_timer64_Timer_initDevice__I
c301c980   xdc_runtime_Core_deleteObject__I
c301ca80   xdc_runtime_LoggerBuf_getFilterLevel__F
c301cb80   xdc_runtime_Startup_exec__F
c301cc80   xdc_runtime_Text_visitRope2__I
c301cd80   MessageQ_get
c301ce60   NameServer_getLocal
c301cfa0   UARTConsoleInit
c301cfd8   UARTConsolePutc
c301d000   UARTConsoleGetc
c301d020   memset
c301d100   ti_sdo_ipc_GateMP_Object__create__S
c301d1e0   ti_sdo_ipc_Ipc_getMasterAddr__I
c301d2c0   ti_sdo_ipc_Ipc_getSlaveAddr__I
c301d3a0   ti_sdo_ipc_ListMP_Object__create__S
c301d480   ti_sdo_ipc_MessageQ_grow__I
c301d560   ti_sdo_ipc_Notify_detach__F
c301d640   ti_sdo_ipc_SharedRegion_reserveMemory__F
c301d720   ti_sdo_ipc_SharedRegion_stop__F
c301d800   ti_sdo_ipc_gates_GatePeterson_sharedMemReq__E
c301d8e0   ti_sdo_ipc_heaps_HeapBufMP_Object__create__S
c301d9c0   ti_sdo_ipc_heaps_HeapBufMP_free__E
c301daa0   ti_sdo_ipc_heaps_HeapBufMP_getStats__F
c301db80   ti_sdo_ipc_heaps_HeapMemMP_Object__create__S
c301dc60   ti_sdo_ipc_notifyDrivers_NotifyDriverShm_Object__create__S
c301dd40   ti_sdo_utils_NameServer_Module_startup__F
c301de20   ti_sysbios_family_c64p_Cache_Module_startup__F
c301df00   ti_sysbios_family_c64p_Hwi_Instance_finalize__F
c301dfe0   ti_sysbios_family_c64p_Hwi_Instance_init__F
c301e0c0   ti_sysbios_knl_Task_unblockI__E
c301e1a0   ti_sysbios_syncs_SyncSem_Object__create__S
c301e280   xdc_runtime_Error_print__F
c301e360   xdc_runtime_LoggerBuf_Object__create__S
c301e440   xdc_runtime_Memory_alloc__F
c301e520   xdc_runtime_Registry_addModule__E
c301e600   xdc_runtime_Registry_findByNamePattern__E
c301e6e0   xdc_runtime_knl_GateThread_Object__create__S
c301e7c0   HOSTwrite
c301e880   HeapMemMP_create
c301e940   Ipc_stop
c301ea00   ListMP_create
c301eac0   MessageQ_create2
c301eb80   MultiProc_getId
c301ec40   SharedRegion_getId
c301edc0   __cxa_finalize
c301ee80   __c6xabi_divu
c301ee80   __divu
c301ef40   exit
c301f000   ti_sdo_ipc_GateMP_attach__F
c301f0c0   ti_sdo_ipc_ListMP_elemClear__I
c301f180   ti_sdo_ipc_Notify_execMany__I
c301f240   ti_sdo_ipc_SharedRegion_detach__F
c301f300   ti_sdo_ipc_family_da830_InterruptDsp_intRegister__E
c301f3c0   ti_sdo_ipc_gates_GatePeterson_postInit__I
c301f480   ti_sdo_ipc_nsremote_NameServerRemoteNotify_attach__E
c301f540   ti_sdo_utils_NameServer_postInit__I
c301f600   ti_sysbios_heaps_HeapMem_getStats__E
c301f6c0   ti_sysbios_knl_Swi_Instance_init__F
c301f780   ti_sysbios_knl_Swi_run__I
c301f840   ti_sysbios_knl_Task_allBlockedFunction__I
c301f900   ti_sysbios_syncs_SyncSem_Instance_init__F
c301f9c0   ti_sysbios_timers_timer64_Timer_startup__E
c301fa80   xdc_runtime_LoggerBuf_Instance_init__F
c301fb40   xdc_runtime_Registry_findById__E
c301fc00   xdc_runtime_System_formatNum__I
c301fcc0   xdc_runtime_Text_matchVisFxn__I
c301fd80   SharedRegion_getPtr
c301fe20   SharedRegion_getSRPtr
c301fec0   __c6xabi_remu
c301fec0   __remu
c301ff60   _c_int00
c3020000   ti_sysbios_family_c64p_Hwi_plug__E
c30200a0   memcpy
c3020140   sqrtsp
c30201e0   ti_sdo_ipc_GateMP_detach__F
c3020280   ti_sdo_ipc_GateMP_getRegion0ReservedSize__F
c3020320   ti_sdo_ipc_GateMP_stop__F
c30203c0   ti_sdo_ipc_gates_GatePeterson_leave__E
c3020460   ti_sdo_ipc_notifyDrivers_NotifyDriverShm_Instance_finalize__F
c3020500   ti_sdo_ipc_transports_TransportShmSetup_detach__E
c30205a0   ti_sysbios_family_c64p_Hwi_eventMap__E
c3020640   ti_sysbios_family_c64p_Hwi_getStackInfo__E
c30206e0   ti_sysbios_gates_GateMutex_enter__E
c3020780   ti_sysbios_heaps_HeapMem_init__I
c3020820   ti_sysbios_knl_Clock_Instance_init__F
c30208c0   ti_sysbios_knl_Clock_Object__create__S
c3020960   ti_sysbios_knl_Idle_run__E
c3020a00   ti_sysbios_knl_Semaphore_pendTimeout__I
c3020aa0   ti_sysbios_knl_Swi_restore__E
c3020b40   ti_sysbios_syncs_SyncSem_wait__F
c3020be0   ti_sysbios_timers_timer64_Timer_Instance_finalize__F
c3020c80   ti_sysbios_timers_timer64_Timer_stop__E
c3020d20   xdc_runtime_Assert_raise__I
c3020dc0   xdc_runtime_LoggerBuf_Module_startup__F
c3020e60   xdc_runtime_Registry_addModule__F
c3020f00   xdc_runtime_Registry_findByName__F
c3020fa0   xdc_runtime_SysMin_abort__F
c3021040   xdc_runtime_SysMin_flush__F
c30210e0   xdc_runtime_SysMin_putch__F
c3021180   xdc_runtime_Text_xprintf__I
c3021220   GateMP_close
c30212a0   HeapBufMP_Params_init
c3021320   HeapMemMP_restore
c30213a0   MessageQ_alloc
c3021420   MessageQ_free
c30214a0   __c6xabi_fixfu
c3021520   __c6xabi_llshl
c30215a0   ti_sysbios_family_c62_TaskSupport_swap__E
c3021620   malloc
c30216a0   readmsg
c3021720   ti_sdo_ipc_Notify_Module_startup__F
c30217a0   ti_sdo_ipc_family_da830_NotifySetup_sharedMemReq__E
c3021820   ti_sdo_ipc_gates_GateMPSupportNull_Object__create__S
c30218a0   ti_sdo_ipc_notifyDrivers_NotifyDriverShm_sharedMemReq__F
c3021920   ti_sdo_ipc_nsremote_NameServerRemoteNotify_detach__E
c30219a0   ti_sdo_ipc_transports_TransportShm_swiFxn__I
c3021a20   ti_sdo_utils_List_Object__create__S
c3021aa0   ti_sysbios_BIOS_errorRaiseHook__I
c3021b20   ti_sysbios_BIOS_exitFunc__I
c3021ba0   ti_sysbios_gates_GateAll_Object__create__S
c3021c20   ti_sysbios_gates_GateHwi_Object__create__S
c3021ca0   ti_sysbios_gates_GateMutexPri_Object__create__S
c3021d20   ti_sysbios_gates_GateMutex_Object__create__S
c3021da0   ti_sysbios_gates_GateSwi_Object__create__S
c3021e20   ti_sysbios_hal_Hwi_checkStack
c3021ea0   ti_sysbios_hal_Hwi_initStack
c3021f20   ti_sysbios_heaps_HeapMem_Instance_init__F
c3021fa0   ti_sysbios_heaps_HeapMem_Object__create__S
c3022020   ti_sysbios_knl_Clock_Module_startup__F
c30220a0   ti_sysbios_knl_Clock_doTick__I
c3022120   ti_sysbios_knl_Clock_getTicks__E
c30221a0   ti_sysbios_knl_Queue_Object__create__S
c3022220   ti_sysbios_knl_Semaphore_Object__create__S
c30222a0   ti_sysbios_knl_Swi_post__E
c3022320   ti_sysbios_knl_Task_processVitalTaskFlag__I
c30223a0   ti_sysbios_knl_Task_restoreHwi__E
c3022420   ti_sysbios_knl_Task_restore__E
c30224a0   ti_sysbios_knl_Task_yield__E
c3022520   ti_sysbios_timers_timer64_Timer_getExpiredCounts__E
c30225a0   ti_sysbios_timers_timer64_Timer_getPeriod__E
c3022620   ti_sysbios_xdcruntime_GateThreadSupport_Object__create__S
c30226a0   xdc_runtime_Core_assignLabel__I
c3022720   xdc_runtime_Core_assignParams__I
c30227a0   xdc_runtime_LoggerBuf_filterOutEvent__I
c3022820   xdc_runtime_Registry_findByNamePattern__F
c30228a0   xdc_runtime_Registry_matchPattern__I
c3022920   xdc_runtime_System_atexit__F
c30229a0   xdc_runtime_System_putchar__I
c3022a20   xdc_runtime_System_rtsExit__I
c3022aa0   xdc_runtime_Text_printVisFxn__I
c3022b20   GateMP_Params_init
c3022b80   HeapMemMP_Params_init
c3022c40   MessageQ_open
c3022ca0   Notify_numIntLines
c3022d00   Notify_sharedMemReq
c3022d60   _subcull
c3022dc0   strpbrk
c3022e20   ti_sdo_ipc_GateMP_Object__delete__S
c3022e80   ti_sdo_ipc_GateMP_createLocal__F
c3022ee0   ti_sdo_ipc_Ipc_getRegion0ReservedSize__I
c3022f40   ti_sdo_ipc_ListMP_Object__delete__S
c3022fa0   ti_sdo_ipc_MessageQ_Object__delete__S
c3023000   ti_sdo_ipc_Notify_Object__delete__S
c3023060   ti_sdo_ipc_gates_GatePeterson_Instance_finalize__F
c30230c0   ti_sdo_ipc_gates_GatePeterson_Object__delete__S
c3023120   ti_sdo_ipc_heaps_HeapBufMP_Object__delete__S
c3023180   ti_sdo_ipc_heaps_HeapMemMP_Object__delete__S
c30231e0   ti_sdo_ipc_notifyDrivers_NotifyDriverShm_Object__delete__S
c3023240   ti_sdo_ipc_notifyDrivers_NotifyDriverShm_enableEvent__E
c30232a0   ti_sdo_ipc_notifyDrivers_NotifyDriverShm_setNotifyHandle__E
c3023300   ti_sdo_ipc_nsremote_NameServerRemoteNotify_Object__delete__S
c3023360   ti_sdo_ipc_transports_TransportShmSetup_sharedMemReq__E
c30233c0   ti_sdo_ipc_transports_TransportShm_Object__delete__S
c3023420   ti_sysbios_BIOS_registerRTSLock__I
c3023480   ti_sysbios_BIOS_removeRTSLock__I
c30234e0   ti_sysbios_BIOS_rtsLock__I
c3023540   ti_sysbios_family_c62_TaskSupport_start__E
c30235a0   ti_sysbios_family_c64p_Cache_all__I
c3023600   ti_sysbios_family_c64p_Cache_marInit__I
c3023660   ti_sysbios_family_c64p_Cache_setMar__E
c30236c0   ti_sysbios_family_c64p_Cache_setSize__E
c3023720   ti_sysbios_family_c64p_Cache_wait__E
c3023780   ti_sysbios_family_c64p_Hwi_Object__delete__S
c30237e0   ti_sysbios_gates_GateAll_enter__E
c3023840   ti_sysbios_gates_GateAll_leave__E
c30238a0   ti_sysbios_gates_GateMutexPri_Object__delete__S
c3023900   ti_sysbios_gates_GateMutex_Instance_init__F
c3023960   ti_sysbios_gates_GateMutex_Object__delete__S
c30239c0   ti_sysbios_hal_Hwi_Instance_init__F
c3023a20   ti_sysbios_hal_Hwi_Object__delete__S
c3023a80   ti_sysbios_knl_Clock_setupTimerToSkipTicks__E
c3023ae0   ti_sysbios_knl_Semaphore_Instance_init__F
c3023b40   ti_sysbios_knl_Semaphore_Object__delete__S
c3023ba0   ti_sysbios_knl_Swi_Module_startup__F
c3023c00   ti_sysbios_knl_Task_enter__I
c3023c60   ti_sysbios_knl_Task_sleepTimeout__I
c3023cc0   ti_sysbios_syncs_SyncSem_Object__delete__S
c3023d20   ti_sysbios_timers_timer64_Timer_Object__delete__S
c3023d80   ti_sysbios_xdcruntime_GateThreadSupport_Object__delete__S
c3023de0   ti_syslink_ipc_rtos_Syslink_attach
c3023e40   writemsg
c3023e98   C$$IO$$
c3023ea0   xdc_runtime_GateNull_Object__create__S
c3023f00   xdc_runtime_LoggerBuf_Object__delete__S
c3023f60   xdc_runtime_Memory_calloc__F
c3023fc0   xdc_runtime_Memory_valloc__F
c3024020   xdc_runtime_SysMin_Module_startup__F
c3024080   xdc_runtime_SysMin_exit__F
c30240e0   xdc_runtime_SysMin_output__I
c3024140   xdc_runtime_System_aprintf_va__F
c30241a0   xdc_runtime_System_printf_va__F
c3024200   xdc_runtime_Text_cordText__F
c3024260   xdc_runtime_knl_GateThread_Object__delete__S
c30242c0   MessageQ_create
c3024300   MessageQ_registerHeap
c3024340   MessageQ_unregisterHeap
c3024380   Notify_intLineRegistered
c30243c0   __c6xabi_frcmpyd_div
c3024400   __c6xabi_llshru
c3024440   _args_main
c3024480   ti_sysbios_family_c62_TaskSupport_buildTaskStack
c30244c0   ti_sysbios_family_xxx_Hwi_switchToIsrStack
c3024500   free
c3024540   ti_sdo_ipc_MessageQ_registerTransport__F
c3024580   ti_sdo_ipc_MessageQ_unregisterTransport__F
c30245c0   ti_sdo_ipc_Notify_exec__F
c3024600   ti_sdo_ipc_SharedRegion_resetInternalFields__F
c3024640   ti_sdo_ipc_family_da830_InterruptDsp_intClear__E
c3024680   ti_sdo_ipc_family_da830_InterruptDsp_intSend__E
c30246c0   ti_sdo_ipc_gates_GateMPSupportNull_Handle__label__S
c3024700   ti_sdo_ipc_gates_GateMPSupportNull_Object__delete__S
c3024740   ti_sdo_ipc_gates_GatePeterson_Handle__label__S
c3024780   ti_sdo_ipc_heaps_HeapBufMP_Handle__label__S
c30247c0   ti_sdo_ipc_heaps_HeapMemMP_Handle__label__S
c3024800   ti_sdo_ipc_notifyDrivers_NotifyDriverShm_Handle__label__S
c3024840   ti_sdo_ipc_nsremote_NameServerRemoteNotify_Handle__label__S
c3024880   ti_sdo_ipc_nsremote_NameServerRemoteNotify_sharedMemReq__E
c30248c0   ti_sdo_ipc_transports_TransportShm_Handle__label__S
c3024900   ti_sdo_utils_List_get__E
c3024940   ti_sdo_utils_List_putHead__E
c3024980   ti_sdo_utils_List_put__E
c30249c0   ti_sdo_utils_NameServer_Module__startupDone__F
c3024a00   ti_sdo_utils_NameServer_Object__get__S
c3024a40   ti_sdo_utils_NameServer_registerRemoteDriver__E
c3024a80   ti_sdo_utils_NameServer_unregisterRemoteDriver__E
c3024ac0   ti_sysbios_BIOS_rtsUnlock__I
c3024b00   ti_sysbios_BIOS_startFunc__I
c3024b40   ti_sysbios_family_c64p_Hwi_Module__startupDone__F
c3024b80   ti_sysbios_family_c64p_Hwi_disableInterrupt__E
c3024bc0   ti_sysbios_family_c64p_Hwi_enableInterrupt__E
c3024c00   ti_sysbios_family_c64p_primus_TimerSupport_enable__E
c3024c40   ti_sysbios_gates_GateAll_Handle__label__S
c3024c80   ti_sysbios_gates_GateAll_Object__delete__S
c3024cc0   ti_sysbios_gates_GateHwi_Handle__label__S
c3024d00   ti_sysbios_gates_GateHwi_Object__delete__S
c3024d40   ti_sysbios_gates_GateMutexPri_Handle__label__S
c3024d80   ti_sysbios_gates_GateMutexPri_Instance_init__F
c3024dc0   ti_sysbios_gates_GateMutexPri_Object__destruct__S
c3024e00   ti_sysbios_gates_GateMutex_Handle__label__S
c3024e40   ti_sysbios_gates_GateMutex_leave__E
c3024e80   ti_sysbios_gates_GateSwi_Handle__label__S
c3024ec0   ti_sysbios_gates_GateSwi_Object__delete__S
c3024f00   ti_sysbios_hal_Timer_Module__startupDone__F
c3024f40   ti_sysbios_heaps_HeapMem_Handle__label__S
c3024f80   ti_sysbios_heaps_HeapMem_Object__delete__S
c3024fc0   ti_sysbios_heaps_HeapMem_Object__get__S
c3025000   ti_sysbios_knl_Clock_start__E
c3025040   ti_sysbios_knl_Queue_put__E
c3025080   ti_sysbios_knl_Semaphore_Object__destruct__S
c30250c0   ti_sysbios_knl_Swi_Object__destruct__S
c3025100   ti_sysbios_knl_Swi_Object__get__S
c3025140   ti_sysbios_knl_Task_Object__get__S
c3025180   ti_sysbios_syncs_SyncSem_Handle__label__S
c30251c0   ti_sysbios_timers_timer64_Timer_Module__startupDone__F
c3025200   ti_sysbios_xdcruntime_GateThreadSupport_Instance_init__F
c3025240   ti_syslink_ipc_rtos_Syslink_detach
c3025280   xdc_runtime_Error_check__F
c30252c0   xdc_runtime_Error_init__F
c3025300   xdc_runtime_GateNull_Handle__label__S
c3025340   xdc_runtime_GateNull_Object__delete__S
c3025380   xdc_runtime_LoggerBuf_Handle__label__S
c30253c0   xdc_runtime_LoggerBuf_Instance_finalize__F
c3025400   xdc_runtime_LoggerBuf_Object__get__S
c3025440   xdc_runtime_LoggerBuf_write0__F
c3025480   xdc_runtime_LoggerBuf_write8__E
c30254c0   xdc_runtime_Memory_free__F
c3025500   xdc_runtime_Registry_findById__F
c3025540   xdc_runtime_System_abort__F
c3025580   xdc_runtime_System_aprintf__E
c30255c0   xdc_runtime_System_printf__E
c3025600   xdc_runtime_Text_matchRope__F
c3025640   xdc_runtime_Text_ropeText__F
c3025680   xdc_runtime_knl_GateThread_Handle__label__S
c30256c0   xdc_runtime_knl_GateThread_Instance_finalize__F
c3025700   xdc_runtime_knl_GateThread_Instance_init__F
c3025740   GateMP_enter
c3025760   GateMP_leave
c3025780   HeapBufMP_close
c30257a0   ListMP_close
c30257c0   ListMP_delete
c30257e0   MessageQ_Params_init
c3025800   MessageQ_close
c3025820   MessageQ_delete
c3025840   NameServer_addUInt32
c3025860   NameServer_getUInt32
c3025880   NameServer_removeEntry
c30258a0   UARTGetc
c30258c0   UARTPutc
c30258e0   UARTStdioInit
c3025900   __cxa_atexit
c3025920   __cxa_ia64_exit
c3025940   __xdc__init
c3025960   _nop
c3025980   _register_lock
c30259a0   _register_unlock
c30259c0   ti_sysbios_family_c62_TaskSupport_glue
c30259e0   ti_sysbios_family_xxx_Hwi_switchToTaskStack
c3025a00   C$$EXIT
c3025a00   abort
c3025a20   atexit
c3025a40   ti_sdo_ipc_GateMP_Params__init__S
c3025a60   ti_sdo_ipc_GateMP_RemoteCustom1Proxy_Object__create__S
c3025a80   ti_sdo_ipc_GateMP_RemoteCustom1Proxy_Object__delete__S
c3025aa0   ti_sdo_ipc_GateMP_RemoteCustom1Proxy_Params__init__S
c3025ac0   ti_sdo_ipc_GateMP_RemoteCustom1Proxy_Proxy__abstract__S
c3025ae0   ti_sdo_ipc_GateMP_RemoteCustom1Proxy_Proxy__delegate__S
c3025b00   ti_sdo_ipc_GateMP_RemoteCustom1Proxy_getReservedMask__E
c3025b20   ti_sdo_ipc_GateMP_RemoteCustom1Proxy_sharedMemReq__E
c3025b40   ti_sdo_ipc_GateMP_RemoteCustom2Proxy_Object__create__S
c3025b60   ti_sdo_ipc_GateMP_RemoteCustom2Proxy_Object__delete__S
c3025b80   ti_sdo_ipc_GateMP_RemoteCustom2Proxy_Params__init__S
c3025ba0   ti_sdo_ipc_GateMP_RemoteCustom2Proxy_Proxy__abstract__S
c3025bc0   ti_sdo_ipc_GateMP_RemoteCustom2Proxy_Proxy__delegate__S
c3025be0   ti_sdo_ipc_GateMP_RemoteCustom2Proxy_getReservedMask__E
c3025c00   ti_sdo_ipc_GateMP_RemoteCustom2Proxy_sharedMemReq__E
c3025c20   ti_sdo_ipc_GateMP_RemoteSystemProxy_Object__create__S
c3025c40   ti_sdo_ipc_GateMP_RemoteSystemProxy_Object__delete__S
c3025c60   ti_sdo_ipc_GateMP_RemoteSystemProxy_Params__init__S
c3025c80   ti_sdo_ipc_GateMP_RemoteSystemProxy_Proxy__abstract__S
c3025ca0   ti_sdo_ipc_GateMP_RemoteSystemProxy_Proxy__delegate__S
c3025cc0   ti_sdo_ipc_GateMP_RemoteSystemProxy_getReservedMask__E
c3025ce0   ti_sdo_ipc_GateMP_RemoteSystemProxy_sharedMemReq__E
c3025d00   ti_sdo_ipc_GateMP_attach__E
c3025d20   ti_sdo_ipc_GateMP_detach__E
c3025d40   ti_sdo_ipc_GateMP_getRegion0ReservedSize__E
c3025d60   ti_sdo_ipc_GateMP_getSharedAddr__E
c3025d80   ti_sdo_ipc_GateMP_getSharedAddr__F
c3025da0   ti_sdo_ipc_GateMP_start__E
c3025dc0   ti_sdo_ipc_GateMP_stop__E
c3025de0   ti_sdo_ipc_ListMP_Params__init__S
c3025e00   ti_sdo_ipc_MessageQ_Module_startup__E
c3025e20   ti_sdo_ipc_MessageQ_Object__get__S
c3025e40   ti_sdo_ipc_MessageQ_Params__init__S
c3025e60   ti_sdo_ipc_MessageQ_SetupTransportProxy_attach__E
c3025e80   ti_sdo_ipc_MessageQ_SetupTransportProxy_detach__E
c3025ea0   ti_sdo_ipc_MessageQ_SetupTransportProxy_isRegistered__E
c3025ec0   ti_sdo_ipc_MessageQ_SetupTransportProxy_sharedMemReq__E
c3025ee0   ti_sdo_ipc_MessageQ_registerTransport__E
c3025f00   ti_sdo_ipc_MessageQ_unregisterTransport__E
c3025f20   ti_sdo_ipc_Notify_Module_GateProxy_enter__E
c3025f40   ti_sdo_ipc_Notify_Module_GateProxy_leave__E
c3025f60   ti_sdo_ipc_Notify_Module_startup__E
c3025f80   ti_sdo_ipc_Notify_SetupProxy_attach__E
c3025fa0   ti_sdo_ipc_Notify_SetupProxy_numIntLines__E
c3025fc0   ti_sdo_ipc_Notify_SetupProxy_sharedMemReq__E
c3025fe0   ti_sdo_ipc_Notify_detach__E
c3026000   ti_sdo_ipc_Notify_exec__E
c3026020   ti_sdo_ipc_SharedRegion_attach__E
c3026040   ti_sdo_ipc_SharedRegion_clearReservedMemory__E
c3026060   ti_sdo_ipc_SharedRegion_detach__E
c3026080   ti_sdo_ipc_SharedRegion_reserveMemory__E
c30260a0   ti_sdo_ipc_SharedRegion_resetInternalFields__E
c30260c0   ti_sdo_ipc_SharedRegion_start__E
c30260e0   ti_sdo_ipc_SharedRegion_stop__E
c3026100   ti_sdo_ipc_family_da830_InterruptDsp_intDisable__E
c3026120   ti_sdo_ipc_family_da830_InterruptDsp_intEnable__E
c3026140   ti_sdo_ipc_family_da830_InterruptDsp_intUnregister__E
c3026160   ti_sdo_ipc_family_da830_NotifySetup_numIntLines__E
c3026180   ti_sdo_ipc_gates_GateMPSupportNull_Instance_init__F
c30261a0   ti_sdo_ipc_gates_GateMPSupportNull_Params__init__S
c30261c0   ti_sdo_ipc_gates_GateMPSupportNull_enter__E
c30261e0   ti_sdo_ipc_gates_GateMPSupportNull_getReservedMask__E
c3026200   ti_sdo_ipc_gates_GateMPSupportNull_leave__E
c3026220   ti_sdo_ipc_gates_GateMPSupportNull_query__E
c3026240   ti_sdo_ipc_gates_GateMPSupportNull_query__F
c3026260   ti_sdo_ipc_gates_GateMPSupportNull_sharedMemReq__E
c3026280   ti_sdo_ipc_gates_GatePeterson_Params__init__S
c30262a0   ti_sdo_ipc_gates_GatePeterson_getReservedMask__E
c30262c0   ti_sdo_ipc_gates_GatePeterson_query__E
c30262e0   ti_sdo_ipc_gates_GatePeterson_query__F
c3026300   ti_sdo_ipc_heaps_HeapBufMP_Params__init__S
c3026320   ti_sdo_ipc_heaps_HeapBufMP_getStats__E
c3026340   ti_sdo_ipc_heaps_HeapBufMP_isBlocking__E
c3026360   ti_sdo_ipc_heaps_HeapBufMP_isBlocking__F
c3026380   ti_sdo_ipc_heaps_HeapMemMP_Params__init__S
c30263a0   ti_sdo_ipc_heaps_HeapMemMP_isBlocking__E
c30263c0   ti_sdo_ipc_heaps_HeapMemMP_isBlocking__F
c30263e0   ti_sdo_ipc_notifyDrivers_NotifyDriverShm_InterruptProxy_intClear__E
c3026400   ti_sdo_ipc_notifyDrivers_NotifyDriverShm_InterruptProxy_intDisable__E
c3026420   ti_sdo_ipc_notifyDrivers_NotifyDriverShm_InterruptProxy_intEnable__E
c3026440   ti_sdo_ipc_notifyDrivers_NotifyDriverShm_InterruptProxy_intRegister__E
c3026460   ti_sdo_ipc_notifyDrivers_NotifyDriverShm_InterruptProxy_intSend__E
c3026480   ti_sdo_ipc_notifyDrivers_NotifyDriverShm_InterruptProxy_intUnregister__E
c30264a0   ti_sdo_ipc_notifyDrivers_NotifyDriverShm_Params__init__S
c30264c0   ti_sdo_ipc_notifyDrivers_NotifyDriverShm_disable__E
c30264e0   ti_sdo_ipc_notifyDrivers_NotifyDriverShm_enable__E
c3026500   ti_sdo_ipc_notifyDrivers_NotifyDriverShm_sharedMemReq__E
c3026520   ti_sdo_ipc_nsremote_NameServerRemoteNotify_Object__first__S
c3026540   ti_sdo_ipc_nsremote_NameServerRemoteNotify_Object__next__S
c3026560   ti_sdo_ipc_nsremote_NameServerRemoteNotify_Params__init__S
c3026580   ti_sdo_ipc_nsremote_NameServerRemoteNotify_cbFxn__I
c30265a0   ti_sdo_ipc_nsremote_NameServerRemoteNotify_get__E
c30265c0   ti_sdo_ipc_transports_TransportShmSetup_isRegistered__E
c30265e0   ti_sdo_ipc_transports_TransportShm_Params__init__S
c3026600   ti_sdo_ipc_transports_TransportShm_close__E
c3026620   ti_sdo_ipc_transports_TransportShm_close__F
c3026640   ti_sdo_ipc_transports_TransportShm_control__E
c3026660   ti_sdo_ipc_transports_TransportShm_getStatus__E
c3026680   ti_sdo_ipc_transports_TransportShm_notifyFxn__I
c30266a0   ti_sdo_ipc_transports_TransportShm_openByAddr__E
c30266c0   ti_sdo_ipc_transports_TransportShm_setErrFxn__E
c30266e0   ti_sdo_ipc_transports_TransportShm_setErrFxn__F
c3026700   ti_sdo_ipc_transports_TransportShm_sharedMemReq__E
c3026720   ti_sdo_utils_List_Instance_init__F
c3026740   ti_sdo_utils_List_Object__destruct__S
c3026760   ti_sdo_utils_List_Object__get__S
c3026780   ti_sdo_utils_MultiProc_getClusterId__E
c30267a0   ti_sdo_utils_MultiProc_getClusterId__F
c30267c0   ti_sdo_utils_NameServer_Module__startupDone__S
c30267e0   ti_sdo_utils_NameServer_Module_startup__E
c3026800   ti_sdo_utils_NameServer_Object__first__S
c3026820   ti_sdo_utils_NameServer_Object__next__S
c3026840   ti_sdo_utils_NameServer_SetupProxy_attach__E
c3026860   ti_sdo_utils_NameServer_SetupProxy_detach__E
c3026880   ti_sdo_utils_NameServer_SetupProxy_sharedMemReq__E
c30268a0   ti_sysbios_BIOS_RtsGateProxy_enter__E
c30268c0   ti_sysbios_BIOS_RtsGateProxy_leave__E
c30268e0   ti_sysbios_BIOS_getThreadType__E
c3026900   ti_sysbios_BIOS_nullFunc__I
c3026920   ti_sysbios_BIOS_setThreadType__E
c3026940   ti_sysbios_BIOS_start__E
c3026960   ti_sysbios_family_c62_TaskSupport_Module__startupDone__S
c3026980   ti_sysbios_family_c62_TaskSupport_checkStack__E
c30269a0   ti_sysbios_family_c62_TaskSupport_getStackAlignment__E
c30269c0   ti_sysbios_family_c64p_Cache_Module_startup__E
c30269e0   ti_sysbios_family_c64p_Cache_invL1pAll__E
c3026a00   ti_sysbios_family_c64p_Cache_inv__E
c3026a20   ti_sysbios_family_c64p_Cache_wbInv__E
c3026a40   ti_sysbios_family_c64p_Cache_wb__E
c3026a60   ti_sysbios_family_c64p_Exception_Module_startup__E
c3026a80   ti_sysbios_family_c64p_Hwi_Module__startupDone__S
c3026aa0   ti_sysbios_family_c64p_Hwi_Module_startup__E
c3026ac0   ti_sysbios_family_c64p_Hwi_Params__init__S
c3026ae0   ti_sysbios_family_c64p_Hwi_clearInterrupt__E
c3026b00   ti_sysbios_family_c64p_Hwi_getHandle__E
c3026b20   ti_sysbios_family_c64p_Hwi_startup__E
c3026b40   ti_sysbios_family_c64p_Hwi_switchFromBootStack__E
c3026b60   ti_sysbios_family_c64p_Hwi_unPluggedInterrupt__I
c3026b80   ti_sysbios_family_c64p_TimestampProvider_Module_startup__E
c3026ba0   ti_sysbios_family_c64p_TimestampProvider_Module_startup__F
c3026bc0   ti_sysbios_family_c64p_TimestampProvider_get64__E
c3026be0   ti_sysbios_gates_GateAll_Instance_init__F
c3026c00   ti_sysbios_gates_GateAll_query__E
c3026c20   ti_sysbios_gates_GateAll_query__F
c3026c40   ti_sysbios_gates_GateHwi_Instance_init__F
c3026c60   ti_sysbios_gates_GateHwi_enter__E
c3026c80   ti_sysbios_gates_GateHwi_leave__E
c3026ca0   ti_sysbios_gates_GateHwi_query__E
c3026cc0   ti_sysbios_gates_GateHwi_query__F
c3026ce0   ti_sysbios_gates_GateMutexPri_Instance_finalize__F
c3026d00   ti_sysbios_gates_GateMutexPri_query__E
c3026d20   ti_sysbios_gates_GateMutexPri_query__F
c3026d40   ti_sysbios_gates_GateMutex_Instance_finalize__F
c3026d60   ti_sysbios_gates_GateMutex_query__E
c3026d80   ti_sysbios_gates_GateMutex_query__F
c3026da0   ti_sysbios_gates_GateSwi_Instance_init__F
c3026dc0   ti_sysbios_gates_GateSwi_enter__E
c3026de0   ti_sysbios_gates_GateSwi_leave__E
c3026e00   ti_sysbios_gates_GateSwi_query__E
c3026e20   ti_sysbios_gates_GateSwi_query__F
c3026e40   ti_sysbios_hal_Cache_CacheProxy_inv__E
c3026e60   ti_sysbios_hal_Cache_CacheProxy_wbInv__E
c3026e80   ti_sysbios_hal_Cache_CacheProxy_wb__E
c3026ea0   ti_sysbios_hal_Cache_inv__E
c3026ec0   ti_sysbios_hal_Cache_wbInv__E
c3026ee0   ti_sysbios_hal_Cache_wb__E
c3026f00   ti_sysbios_hal_Hwi_HwiProxy_Module__startupDone__S
c3026f20   ti_sysbios_hal_Hwi_HwiProxy_Object__create__S
c3026f40   ti_sysbios_hal_Hwi_HwiProxy_Object__delete__S
c3026f60   ti_sysbios_hal_Hwi_HwiProxy_clearInterrupt__E
c3026f80   ti_sysbios_hal_Hwi_HwiProxy_disableInterrupt__E
c3026fa0   ti_sysbios_hal_Hwi_HwiProxy_enableInterrupt__E
c3026fc0   ti_sysbios_hal_Hwi_HwiProxy_getStackInfo__E
c3026fe0   ti_sysbios_hal_Hwi_HwiProxy_startup__E
c3027000   ti_sysbios_hal_Hwi_HwiProxy_switchFromBootStack__E
c3027020   ti_sysbios_hal_Hwi_Instance_finalize__F
c3027040   ti_sysbios_hal_Hwi_Module_startup__E
c3027060   ti_sysbios_hal_Hwi_Module_startup__F
c3027080   ti_sysbios_hal_Hwi_Params__init__S
c30270a0   ti_sysbios_hal_Hwi_enableInterrupt__E
c30270c0   ti_sysbios_hal_Hwi_startup__E
c30270e0   ti_sysbios_hal_Timer_Module__startupDone__S
c3027100   ti_sysbios_hal_Timer_Module_startup__E
c3027120   ti_sysbios_hal_Timer_Module_startup__F
c3027140   ti_sysbios_hal_Timer_TimerProxy_Module__startupDone__S
c3027160   ti_sysbios_hal_Timer_TimerProxy_getExpiredCounts__E
c3027180   ti_sysbios_hal_Timer_TimerProxy_getPeriod__E
c30271a0   ti_sysbios_hal_Timer_TimerProxy_setNextTick__E
c30271c0   ti_sysbios_hal_Timer_TimerProxy_startup__E
c30271e0   ti_sysbios_hal_Timer_startup__E
c3027200   ti_sysbios_heaps_HeapMem_Module_GateProxy_enter__E
c3027220   ti_sysbios_heaps_HeapMem_Module_GateProxy_leave__E
c3027240   ti_sysbios_heaps_HeapMem_Module_GateProxy_query__E
c3027260   ti_sysbios_heaps_HeapMem_isBlocking__E
c3027280   ti_sysbios_knl_Clock_Module_startup__E
c30272a0   ti_sysbios_knl_Clock_Params__init__S
c30272c0   ti_sysbios_knl_Clock_logTick__E
c30272e0   ti_sysbios_knl_Idle_loop__E
c3027300   ti_sysbios_knl_Queue_Instance_init__F
c3027320   ti_sysbios_knl_Queue_Object__destruct__S
c3027340   ti_sysbios_knl_Queue_Object__get__S
c3027360   ti_sysbios_knl_Queue_empty__E
c3027380   ti_sysbios_knl_Semaphore_Instance_finalize__F
c30273a0   ti_sysbios_knl_Semaphore_Params__init__S
c30273c0   ti_sysbios_knl_Swi_Instance_finalize__F
c30273e0   ti_sysbios_knl_Swi_Module_startup__E
c3027400   ti_sysbios_knl_Swi_Params__init__S
c3027420   ti_sysbios_knl_Swi_disable__E
c3027440   ti_sysbios_knl_Swi_startup__E
c3027460   ti_sysbios_knl_Task_Module_startup__E
c3027480   ti_sysbios_knl_Task_Object__first__S
c30274a0   ti_sysbios_knl_Task_Object__next__S
c30274c0   ti_sysbios_knl_Task_Params__init__S
c30274e0   ti_sysbios_knl_Task_SupportProxy_Module__startupDone__S
c3027500   ti_sysbios_knl_Task_SupportProxy_checkStack__E
c3027520   ti_sysbios_knl_Task_SupportProxy_getStackAlignment__E
c3027540   ti_sysbios_knl_Task_SupportProxy_start__E
c3027560   ti_sysbios_knl_Task_SupportProxy_swap__E
c3027580   ti_sysbios_knl_Task_disable__E
c30275a0   ti_sysbios_knl_Task_getPri__E
c30275c0   ti_sysbios_knl_Task_self__E
c30275e0   ti_sysbios_knl_Task_startup__E
c3027600   ti_sysbios_syncs_SyncSem_Instance_finalize__F
c3027620   ti_sysbios_syncs_SyncSem_query__E
c3027640   ti_sysbios_syncs_SyncSem_query__F
c3027660   ti_sysbios_syncs_SyncSem_signal__E
c3027680   ti_sysbios_syncs_SyncSem_signal__F
c30276a0   ti_sysbios_syncs_SyncSem_wait__E
c30276c0   ti_sysbios_timers_timer64_Timer_Module__startupDone__S
c30276e0   ti_sysbios_timers_timer64_Timer_Module_startup__E
c3027700   ti_sysbios_timers_timer64_Timer_Params__init__S
c3027720   ti_sysbios_timers_timer64_Timer_TimerSupportProxy_enable__E
c3027740   ti_sysbios_timers_timer64_Timer_setNextTick__E
c3027760   ti_sysbios_xdcruntime_GateThreadSupport_Instance_finalize__F
c3027780   ti_sysbios_xdcruntime_GateThreadSupport_enter__E
c30277a0   ti_sysbios_xdcruntime_GateThreadSupport_enter__F
c30277c0   ti_sysbios_xdcruntime_GateThreadSupport_leave__E
c30277e0   ti_sysbios_xdcruntime_GateThreadSupport_leave__F
c3027800   ti_sysbios_xdcruntime_GateThreadSupport_query__E
c3027820   ti_sysbios_xdcruntime_GateThreadSupport_query__F
c3027840   xdc_runtime_Diags_setMask__E
c3027860   xdc_runtime_Error_check__E
c3027880   xdc_runtime_Error_init__E
c30278a0   xdc_runtime_Error_print__E
c30278c0   xdc_runtime_Error_raiseX__E
c30278e0   xdc_runtime_GateNull_enter__E
c3027900   xdc_runtime_GateNull_enter__F
c3027920   xdc_runtime_GateNull_leave__E
c3027940   xdc_runtime_GateNull_leave__F
c3027960   xdc_runtime_GateNull_query__E
c3027980   xdc_runtime_GateNull_query__F
c30279a0   xdc_runtime_Gate_enterSystem__E
c30279c0   xdc_runtime_Gate_enterSystem__F
c30279e0   xdc_runtime_Gate_leaveSystem__E
c3027a00   xdc_runtime_Gate_leaveSystem__F
c3027a60   xdc_runtime_LoggerBuf_Module_GateProxy_enter__E
c3027a80   xdc_runtime_LoggerBuf_Module_GateProxy_leave__E
c3027aa0   xdc_runtime_LoggerBuf_Module_startup__E
c3027ac0   xdc_runtime_LoggerBuf_TimestampProxy_get64__E
c3027ae0   xdc_runtime_LoggerBuf_disable__E
c3027b00   xdc_runtime_LoggerBuf_disable__F
c3027b20   xdc_runtime_LoggerBuf_enable__E
c3027b40   xdc_runtime_LoggerBuf_enable__F
c3027b60   xdc_runtime_LoggerBuf_getFilterLevel__E
c3027b80   xdc_runtime_LoggerBuf_setFilterLevel__E
c3027ba0   xdc_runtime_LoggerBuf_write0__E
c3027bc0   xdc_runtime_LoggerBuf_write1__E
c3027be0   xdc_runtime_LoggerBuf_write1__F
c3027c00   xdc_runtime_LoggerBuf_write2__E
c3027c20   xdc_runtime_LoggerBuf_write2__F
c3027c40   xdc_runtime_LoggerBuf_write4__E
c3027c60   xdc_runtime_Memory_HeapProxy_alloc__E
c3027c80   xdc_runtime_Memory_HeapProxy_free__E
c3027ca0   xdc_runtime_Memory_alloc__E
c3027cc0   xdc_runtime_Memory_calloc__E
c3027ce0   xdc_runtime_Memory_free__E
c3027d00   xdc_runtime_Memory_getMaxDefaultTypeAlign__E
c3027d20   xdc_runtime_Memory_getMaxDefaultTypeAlign__F
c3027d40   xdc_runtime_Memory_valloc__E
c3027d60   xdc_runtime_Startup_Module__startupDone__S
c3027d80   xdc_runtime_Startup_exec__E
c3027da0   xdc_runtime_Startup_exec__I
c3027dc0   xdc_runtime_Startup_reset__I
c3027de0   xdc_runtime_SysMin_Module_startup__E
c3027e00   xdc_runtime_SysMin_abort__E
c3027e20   xdc_runtime_SysMin_exit__E
c3027e40   xdc_runtime_SysMin_putch__E
c3027e60   xdc_runtime_SysMin_ready__E
c3027e80   xdc_runtime_SysMin_ready__F
c3027ea0   xdc_runtime_System_Module_GateProxy_enter__E
c3027ec0   xdc_runtime_System_Module_GateProxy_leave__E
c3027ee0   xdc_runtime_System_Module_startup__E
c3027f00   xdc_runtime_System_Module_startup__F
c3027f20   xdc_runtime_System_SupportProxy_abort__E
c3027f40   xdc_runtime_System_SupportProxy_exit__E
c3027f60   xdc_runtime_System_SupportProxy_putch__E
c3027f80   xdc_runtime_System_SupportProxy_ready__E
c3027fa0   xdc_runtime_System_abort__E
c3027fc0   xdc_runtime_System_atexit__E
c3027fe0   xdc_runtime_System_exit__E
c3028000   xdc_runtime_System_exit__F
c3028020   xdc_runtime_System_lastFxn__I
c3028040   xdc_runtime_System_vsnprintf__E
c3028060   xdc_runtime_System_vsnprintf__F
c3028080   xdc_runtime_Text_cordText__E
c30280a0   xdc_runtime_Text_matchRope__E
c30280c0   xdc_runtime_Text_putLab__E
c30280e0   xdc_runtime_Text_putSite__E
c3028100   xdc_runtime_Text_ropeText__E
c3028120   xdc_runtime_Text_visitRope__I
c3028140   xdc_runtime_knl_GateThread_Module__startupDone__S
c3028160   xdc_runtime_knl_GateThread_Proxy_Object__create__S
c3028180   xdc_runtime_knl_GateThread_Proxy_Object__delete__S
c30281a0   xdc_runtime_knl_GateThread_Proxy_enter__E
c30281c0   xdc_runtime_knl_GateThread_Proxy_leave__E
c30281e0   xdc_runtime_knl_GateThread_Proxy_query__E
c3028200   xdc_runtime_knl_GateThread_enter__E
c3028220   xdc_runtime_knl_GateThread_enter__F
c3028240   xdc_runtime_knl_GateThread_leave__E
c3028260   xdc_runtime_knl_GateThread_leave__F
c3028280   xdc_runtime_knl_GateThread_query__E
c30282a0   xdc_runtime_knl_GateThread_query__F
c30282c0   ti_sdo_utils_NameServer_Module_State_0_nsRemoteHandle__A
c30282c8   ti_sysbios_heaps_HeapMem_Instance_State_0_buf__A
c30302c8   ti_sysbios_knl_Task_Instance_State_0_hookEnv__A
c30302d0   xdc_runtime_LoggerBuf_Instance_State_0_entryArr__A
c30312d0   xdc_runtime_SysMin_Module_State_0_outbuf__A
c30322d0   AD_Data
c30332d0   FFT_In
c30342d0   ad7606Str
c3034af0   BaseFFToutValue
c3034b30   FFTBaseValue
c3034b70   AdjustValue
c3034d90   ycvalueprt
c3034da0   ti_sysbios_knl_Task_Instance_State_0_stack__A
c30355a0   Test__Desc
c3035604   Module_Mes
c303561c   ShareRegionAddr
c3035648   dianbiaodata
c303565c   yzdata
c303566c   faprivatedata
c3035678   xdc_runtime_Text_charTab__A
c30395d8   xdc_runtime_Text_nodeTab__A
c30399b6   ti_sdo_ipc_GateMP_Module__id__C
c30399b8   ti_sysbios_timers_timer64_Timer_Object__PARAMS__C
c3039ac6   ti_sdo_ipc_Ipc_generateSlaveDataForHost__C
c3039b08   xdc_runtime_Startup_sfxnTab__A
c3039b48   ti_sysbios_knl_Task_Object__PARAMS__C
c3039b84   xdc_runtime_LoggerBuf_Module__FXNS__C
c3039bc0   ti_sdo_ipc_heaps_HeapBufMP_Object__PARAMS__C
c3039bf8   ti_sdo_ipc_notifyDrivers_NotifyDriverShm_Module__FXNS__C
c3039c30   ti_sdo_ipc_GateMP_Object__PARAMS__C
c3039c64   ti_sdo_ipc_notifyDrivers_NotifyDriverShm_Object__PARAMS__C
c3039c98   ti_sdo_ipc_heaps_HeapMemMP_Object__PARAMS__C
c3039cc8   ti_sysbios_family_c64p_Hwi_Object__PARAMS__C
c3039d24   ti_sdo_ipc_ListMP_Object__PARAMS__C
c3039d50   ti_sdo_ipc_gates_GateMPSupportNull_Module__FXNS__C
c3039d7c   ti_sdo_ipc_gates_GatePeterson_Module__FXNS__C
c3039da8   ti_sysbios_hal_Hwi_Object__PARAMS__C
c3039dd4   ti_sdo_ipc_heaps_HeapBufMP_Module__FXNS__C
c3039dfc   ti_sdo_ipc_heaps_HeapMemMP_Module__FXNS__C
c3039e24   ti_sdo_ipc_nsremote_NameServerRemoteNotify_Module__FXNS__C
c3039e4c   ti_sdo_ipc_transports_TransportShm_Module__FXNS__C
c3039e74   ti_sdo_ipc_transports_TransportShm_Object__PARAMS__C
c3039e9c   ti_sysbios_heaps_HeapMem_Module__FXNS__C
c3039ec4   ti_sysbios_knl_Swi_Object__PARAMS__C
c3039eec   xdc_runtime_LoggerBuf_Object__PARAMS__C
c3039f14   ti_sdo_ipc_gates_GateMPSupportNull_Object__PARAMS__C
c3039f38   ti_sdo_ipc_gates_GatePeterson_Object__PARAMS__C
c3039f5c   ti_sysbios_gates_GateAll_Module__FXNS__C
c3039f80   ti_sysbios_gates_GateHwi_Module__FXNS__C
c3039fa4   ti_sysbios_gates_GateMutexPri_Module__FXNS__C
c3039fc8   ti_sysbios_gates_GateMutex_Module__FXNS__C
c3039fec   ti_sysbios_gates_GateSwi_Module__FXNS__C
c303a010   ti_sysbios_heaps_HeapMem_Object__PARAMS__C
c303a034   ti_sysbios_knl_Clock_Object__PARAMS__C
c303a058   ti_sysbios_knl_Semaphore_Object__PARAMS__C
c303a07c   ti_sysbios_syncs_SyncSem_Module__FXNS__C
c303a0a0   xdc_runtime_GateNull_Module__FXNS__C
c303a0c4   xdc_runtime_knl_GateThread_Module__FXNS__C
c303a0e8   ti_sdo_ipc_GateMP_Object__DESC__C
c303a108   ti_sdo_ipc_ListMP_Object__DESC__C
c303a128   ti_sdo_ipc_MessageQ_Object__DESC__C
c303a148   ti_sdo_ipc_MessageQ_Object__PARAMS__C
c303a168   ti_sdo_ipc_Notify_Object__DESC__C
c303a188   ti_sdo_ipc_gates_GateMPSupportNull_Object__DESC__C
c303a1a8   ti_sdo_ipc_gates_GatePeterson_Object__DESC__C
c303a1c8   ti_sdo_ipc_heaps_HeapBufMP_Object__DESC__C
c303a1e8   ti_sdo_ipc_heaps_HeapMemMP_Object__DESC__C
c303a208   ti_sdo_ipc_notifyDrivers_NotifyDriverShm_Object__DESC__C
c303a228   ti_sdo_ipc_nsremote_NameServerRemoteNotify_Object__DESC__C
c303a248   ti_sdo_ipc_nsremote_NameServerRemoteNotify_Object__PARAMS__C
c303a268   ti_sdo_ipc_transports_TransportShm_Object__DESC__C
c303a288   ti_sdo_utils_List_Object__DESC__C
c303a2a8   ti_sysbios_family_c64p_Hwi_Object__DESC__C
c303a2c8   ti_sysbios_gates_GateAll_Object__DESC__C
c303a2e8   ti_sysbios_gates_GateHwi_Object__DESC__C
c303a308   ti_sysbios_gates_GateMutexPri_Object__DESC__C
c303a328   ti_sysbios_gates_GateMutex_Object__DESC__C
c303a348   ti_sysbios_gates_GateSwi_Object__DESC__C
c303a368   ti_sysbios_hal_Hwi_Object__DESC__C
c303a388   ti_sysbios_heaps_HeapMem_Object__DESC__C
c303a3a8   ti_sysbios_knl_Clock_Object__DESC__C
c303a3c8   ti_sysbios_knl_Queue_Object__DESC__C
c303a3e8   ti_sysbios_knl_Semaphore_Object__DESC__C
c303a408   ti_sysbios_knl_Swi_Object__DESC__C
c303a428   ti_sysbios_knl_Task_Object__DESC__C
c303a448   ti_sysbios_syncs_SyncSem_Object__DESC__C
c303a468   ti_sysbios_timers_timer64_Timer_Object__DESC__C
c303a488   ti_sysbios_xdcruntime_GateThreadSupport_Object__DESC__C
c303a4a8   xdc_runtime_GateNull_Object__DESC__C
c303a4c8   xdc_runtime_LoggerBuf_Object__DESC__C
c303a4e8   xdc_runtime_Startup_sfxnRts__A
c303a508   xdc_runtime_knl_GateThread_Object__DESC__C
c303a528   ti_sysbios_syncs_SyncSem_Object__PARAMS__C
c303a55e   ti_sdo_ipc_Ipc_sr0MemorySetup__C
c303a560   ti_sdo_ipc_Notify_Object__PARAMS__C
c303a578   ti_sdo_utils_List_Object__PARAMS__C
c303a590   ti_sysbios_gates_GateAll_Object__PARAMS__C
c303a5a8   ti_sysbios_gates_GateHwi_Object__PARAMS__C
c303a5c0   ti_sysbios_gates_GateMutexPri_Object__PARAMS__C
c303a5d8   ti_sysbios_gates_GateMutex_Object__PARAMS__C
c303a5f0   ti_sysbios_gates_GateSwi_Object__PARAMS__C
c303a608   ti_sysbios_knl_Queue_Object__PARAMS__C
c303a620   ti_sysbios_knl_Task_hooks__A
c303a638   ti_sysbios_xdcruntime_GateThreadSupport_Object__PARAMS__C
c303a650   xdc_runtime_GateNull_Object__PARAMS__C
c303a668   xdc_runtime_knl_GateThread_Object__PARAMS__C
c303a692   ti_sdo_ipc_ListMP_Module__id__C
c303a6aa   ti_sdo_ipc_MessageQ_Module__id__C
c303a6c2   ti_sdo_ipc_Notify_numLines__C
c303a6c4   ti_sdo_ipc_GateMP_E_gateUnavailable__C
c303a6f6   ti_sdo_ipc_SharedRegion_numEntries__C
c303a706   ti_sdo_ipc_SharedRegion_translate__C
c303a716   ti_sdo_ipc_family_da830_NotifySetup_useSecondLine__C
c303a726   ti_sdo_ipc_gates_GatePeterson_Module__id__C
c303a736   ti_sdo_ipc_heaps_HeapBufMP_Module__id__C
c303a746   ti_sdo_ipc_heaps_HeapBufMP_trackAllocs__C
c303a754   ti_sdo_ipc_GateMP_E_localGate__C
c303a758   ti_sdo_ipc_Ipc_userFxns__A
c303a764   ti_sysbios_family_c64p_Cache_initSize__C
c303a77c   ti_sdo_ipc_Ipc_E_internal__C
c303a78c   ti_sdo_ipc_Ipc_E_nameFailed__C
c303a79c   ti_sdo_ipc_Ipc_E_versionMismatch__C
c303a7ac   ti_sdo_ipc_Ipc_numUserFxns__C
c303a7bc   ti_sdo_ipc_Ipc_procSync__C
c303a7cc   ti_sdo_ipc_Ipc_userFxns__C
c303a7da   ti_sdo_ipc_heaps_HeapMemMP_Module__id__C
c303a7dc   ti_sdo_ipc_MessageQ_E_indexNotAvailable__C
c303a7ea   ti_sdo_ipc_nsremote_NameServerRemoteNotify_Module__id__C
c303a7ec   ti_sdo_ipc_MessageQ_E_maxReached__C
c303a7fa   ti_sdo_ipc_transports_TransportShm_Module__id__C
c303a7fc   ti_sdo_ipc_MessageQ_E_nameFailed__C
c303a80a   ti_sdo_ipc_transports_TransportShm_notifyEventId__C
c303a80c   ti_sdo_ipc_MessageQ_Instance_State_highList__O
c303a81a   ti_sdo_utils_MultiProc_numProcessors__C
c303a81c   ti_sdo_ipc_MessageQ_Instance_State_normalList__O
c303a82a   ti_sdo_utils_MultiProc_numProcsInCluster__C
c303a82c   ti_sdo_ipc_MessageQ_Object__count__C
c303a83a   ti_sdo_utils_NameServer_Module__id__C
c303a83c   ti_sdo_ipc_MessageQ_Object__heap__C
c303a858   ti_sdo_utils_MultiProc_nameList__A
c303a860   ti_sysbios_knl_Idle_coreList__C
c303a868   ti_sysbios_knl_Idle_funcList__C
c303a870   ti_sysbios_knl_Task_hooks__C
c303a878   xdc_runtime_Startup_firstFxns__A
c303a880   xdc_runtime_Startup_firstFxns__C
c303a888   xdc_runtime_Startup_lastFxns__C
c303a890   ti_sdo_ipc_MessageQ_maxRuntimeEntries__C
c303a894   ti_sdo_ipc_MessageQ_numReservedEntries__C
c303a898   ti_sdo_ipc_Notify_Module__gateObj__C
c303a89c   ti_sdo_ipc_Notify_Object__heap__C
c303a8a0   ti_sdo_ipc_Notify_numEvents__C
c303a8a4   ti_sdo_ipc_Notify_sendEventPollCount__C
c303a8a8   ti_sdo_ipc_SharedRegion_INVALIDSRPTR__C
c303a8ac   ti_sdo_ipc_SharedRegion_numOffsetBits__C
c303a8b0   ti_sdo_ipc_SharedRegion_offsetMask__C
c303a8b4   ti_sdo_ipc_family_da830_NotifySetup_armRecvIntId0__C
c303a8b8   ti_sdo_ipc_family_da830_NotifySetup_armRecvIntId1__C
c303a8bc   ti_sdo_ipc_family_da830_NotifySetup_dspIntVectId0__C
c303a8c0   ti_sdo_ipc_family_da830_NotifySetup_dspIntVectId1__C
c303a8c4   ti_sdo_ipc_family_da830_NotifySetup_dspRecvIntId0__C
c303a8c8   ti_sdo_ipc_family_da830_NotifySetup_dspRecvIntId1__C
c303a8cc   ti_sdo_ipc_gates_GatePeterson_E_gateRemotelyOpened__C
c303a8d0   ti_sdo_ipc_heaps_HeapBufMP_E_alignTooLarge__C
c303a8d4   ti_sdo_ipc_heaps_HeapBufMP_E_exactFail__C
c303a8d8   ti_sdo_ipc_heaps_HeapBufMP_E_noBlocksLeft__C
c303a8dc   ti_sdo_ipc_heaps_HeapBufMP_E_sizeTooLarge__C
c303a8e0   ti_sdo_ipc_heaps_HeapMemMP_E_memory__C
c303a8e4   ti_sdo_ipc_interfaces_IGateMPSupport_Interface__BASE__C
c303a8e8   ti_sdo_ipc_interfaces_IMessageQTransport_Interface__BASE__C
c303a8ec   ti_sdo_ipc_interfaces_INotifyDriver_Interface__BASE__C
c303a8f0   ti_sdo_ipc_notifyDrivers_NotifyDriverShm_Object__heap__C
c303a8f4   ti_sdo_ipc_nsremote_NameServerRemoteNotify_Instance_State_semMultiBlock__O
c303a8f8   ti_sdo_ipc_nsremote_NameServerRemoteNotify_Instance_State_semRemoteWait__O
c303a8fc   ti_sdo_ipc_nsremote_NameServerRemoteNotify_Instance_State_swiObj__O
c303a900   ti_sdo_ipc_nsremote_NameServerRemoteNotify_notifyEventId__C
c303a904   ti_sdo_ipc_nsremote_NameServerRemoteNotify_timeout__C
c303a908   ti_sdo_ipc_transports_TransportShmSetup_priority__C
c303a90c   ti_sdo_ipc_transports_TransportShm_Instance_State_swiObj__O
c303a910   ti_sdo_utils_INameServerRemote_Interface__BASE__C
c303a914   ti_sdo_utils_MultiProc_nameList__C
c303a918   ti_sdo_utils_MultiProc_procIdList__A
c303a91c   ti_sdo_utils_MultiProc_procIdList__C
c303a920   ti_sdo_utils_NameServer_E_entryExists__C
c303a924   ti_sdo_utils_NameServer_E_maxReached__C
c303a928   ti_sdo_utils_NameServer_Instance_State_freeList__O
c303a92c   ti_sdo_utils_NameServer_Instance_State_nameList__O
c303a930   ti_sdo_utils_NameServer_Object__count__C
c303a934   ti_sysbios_BIOS_installedErrorHook__C
c303a938   ti_sysbios_family_c62_TaskSupport_stackAlignment__C
c303a93c   ti_sysbios_family_c64p_Cache_EMIFA_BASE__C
c303a940   ti_sysbios_family_c64p_Cache_EMIFA_CFG__C
c303a944   ti_sysbios_family_c64p_Cache_EMIFA_LENGTH__C
c303a948   ti_sysbios_family_c64p_Cache_EMIFB_BASE__C
c303a94c   ti_sysbios_family_c64p_Cache_EMIFB_CFG__C
c303a950   ti_sysbios_family_c64p_Cache_EMIFB_LENGTH__C
c303a954   ti_sysbios_family_c64p_Cache_EMIFC_BASE__C
c303a958   ti_sysbios_family_c64p_Cache_EMIFC_CFG__C
c303a95c   ti_sysbios_family_c64p_Cache_EMIFC_LENGTH__C
c303a960   ti_sysbios_family_c64p_Cache_MAR0_31__C
c303a964   ti_sysbios_family_c64p_Cache_MAR128_159__C
c303a968   ti_sysbios_family_c64p_Cache_MAR160_191__C
c303a96c   ti_sysbios_family_c64p_Cache_MAR192_223__C
c303a970   ti_sysbios_family_c64p_Cache_MAR224_255__C
c303a974   ti_sysbios_family_c64p_Cache_MAR32_63__C
c303a978   ti_sysbios_family_c64p_Cache_MAR64_95__C
c303a97c   ti_sysbios_family_c64p_Cache_MAR96_127__C
c303a980   ti_sysbios_family_c64p_Exception_E_exceptionMax__C
c303a984   ti_sysbios_family_c64p_Exception_E_exceptionMin__C
c303a988   ti_sysbios_family_c64p_Exception_exceptionHook__C
c303a98c   ti_sysbios_family_c64p_Exception_externalHook__C
c303a990   ti_sysbios_family_c64p_Exception_internalHook__C
c303a994   ti_sysbios_family_c64p_Exception_nmiHook__C
c303a998   ti_sysbios_family_c64p_Hwi_E_alreadyDefined__C
c303a99c   ti_sysbios_family_c64p_Hwi_E_handleNotFound__C
c303a9a0   ti_sysbios_gates_GateMutexPri_Instance_State_pendQ__O
c303a9a4   ti_sysbios_gates_GateMutex_Instance_State_sem__O
c303a9a8   ti_sysbios_hal_Hwi_E_stackOverflow__C
c303a9ac   ti_sysbios_heaps_HeapMem_E_memory__C
c303a9b0   ti_sysbios_heaps_HeapMem_Module__gateObj__C
c303a9b4   ti_sysbios_heaps_HeapMem_Object__count__C
c303a9b8   ti_sysbios_heaps_HeapMem_reqAlign__C
c303a9bc   ti_sysbios_knl_Clock_Module_State_clockQ__O
c303a9c0   ti_sysbios_knl_Clock_tickMode__C
c303a9c4   ti_sysbios_knl_Clock_tickPeriod__C
c303a9c8   ti_sysbios_knl_Clock_tickSource__C
c303a9cc   ti_sysbios_knl_Semaphore_Instance_State_pendQ__O
c303a9d0   ti_sysbios_knl_Idle_coreList__A
c303a9d4   ti_sysbios_knl_Swi_Object__count__C
c303a9d8   ti_sysbios_knl_Idle_funcList__A
c303a9dc   ti_sysbios_knl_Swi_numPriorities__C
c303a9e0   ti_sysbios_knl_Task_E_deleteNotAllowed__C
c303a9e4   ti_sysbios_knl_Task_E_spOutOfBounds__C
c303a9e8   ti_sysbios_knl_Task_E_stackOverflow__C
c303a9ec   ti_sysbios_knl_Task_Module_State_inactiveQ__O
c303a9f0   ti_sysbios_knl_Task_Module_State_terminatedQ__O
c303a9f4   ti_sysbios_knl_Task_Object__count__C
c303a9f8   ti_sysbios_knl_Task_Object__heap__C
c303a9fc   ti_sysbios_knl_Task_allBlockedFunc__C
c303aa00   ti_sysbios_knl_Task_defaultStackHeap__C
c303aa04   ti_sysbios_knl_Task_defaultStackSize__C
c303aa08   ti_sysbios_knl_Task_numConstructedTasks__C
c303aa0c   ti_sysbios_timers_timer64_Timer_E_cannotSupport__C
c303aa10   ti_sysbios_timers_timer64_Timer_E_invalidTimer__C
c303aa14   ti_sysbios_timers_timer64_Timer_E_notAvailable__C
c303aa18   ti_sysbios_timers_timer64_Timer_anyMask__C
c303aa1c   ti_sysbios_timers_timer64_Timer_defaultHalf__C
c303aa20   ti_sysbios_timers_timer64_Timer_freqDivisor__C
c303aa24   ti_sysbios_timers_timer64_Timer_numLocalTimers__C
c303aa28   ti_sysbios_timers_timer64_Timer_numTimerDevices__C
c303aa2c   ti_sysbios_xdcruntime_GateThreadSupport_Instance_State_gate__O
c303aa30   xdc_runtime_Assert_E_assertFailed__C
c303aa34   xdc_runtime_Core_A_initializedParams__C
c303aa38   xdc_runtime_Core_Module__diagsEnabled__C
c303aa3c   xdc_runtime_Core_Module__diagsIncluded__C
c303aa40   xdc_runtime_Core_Module__diagsMask__C
c303aa44   xdc_runtime_Diags_dictBase__C
c303aa48   xdc_runtime_Error_E_memory__C
c303aa4c   xdc_runtime_Error_Module__diagsEnabled__C
c303aa50   xdc_runtime_Error_Module__diagsIncluded__C
c303aa54   xdc_runtime_Error_Module__diagsMask__C
c303aa58   xdc_runtime_Error_Module__loggerFxn8__C
c303aa5c   xdc_runtime_Error_Module__loggerObj__C
c303aa60   xdc_runtime_Error_policy__C
c303aa64   xdc_runtime_Error_raiseHook__C
c303aa68   xdc_runtime_IFilterLogger_Interface__BASE__C
c303aa6c   xdc_runtime_IGateProvider_Interface__BASE__C
c303aa70   xdc_runtime_IHeap_Interface__BASE__C
c303aa74   xdc_runtime_ILogger_Interface__BASE__C
c303aa78   xdc_runtime_IModule_Interface__BASE__C
c303aa7c   xdc_runtime_Log_L_error__C
c303aa80   xdc_runtime_LoggerBuf_E_badLevel__C
c303aa84   xdc_runtime_LoggerBuf_Module__gateObj__C
c303aa88   xdc_runtime_LoggerBuf_Object__count__C
c303aa8c   xdc_runtime_LoggerBuf_statusLogger__C
c303aa90   xdc_runtime_Memory_defaultHeapInstance__C
c303aa94   xdc_runtime_Registry_Module__diagsEnabled__C
c303aa98   xdc_runtime_Registry_Module__diagsIncluded__C
c303aa9c   xdc_runtime_Registry_Module__diagsMask__C
c303aaa0   xdc_runtime_Registry_Module__loggerFxn1__C
c303aaa4   xdc_runtime_Registry_Module__loggerFxn2__C
c303aaa8   xdc_runtime_Registry_Module__loggerFxn4__C
c303aaac   xdc_runtime_Registry_Module__loggerObj__C
c303aab0   xdc_runtime_Startup_execImpl__C
c303aab4   xdc_runtime_Startup_maxPasses__C
c303aab8   xdc_runtime_Startup_lastFxns__A
c303aabc   xdc_runtime_Startup_sfxnRts__C
c303aac0   xdc_runtime_Startup_sfxnTab__C
c303aac4   xdc_runtime_SysMin_bufSize__C
c303aac8   xdc_runtime_SysMin_outputFunc__C
c303aacc   xdc_runtime_System_Module__gateObj__C
c303aad0   xdc_runtime_System_extendFxn__C
c303aad4   xdc_runtime_System_maxAtexitHandlers__C
c303aad8   xdc_runtime_Text_charTab__C
c303aadc   xdc_runtime_Text_nameEmpty__C
c303aae0   xdc_runtime_Text_nameStatic__C
c303aae4   xdc_runtime_Text_nameUnknown__C
c303aae8   xdc_runtime_Text_nodeTab__C
c303aaec   xdc_runtime_Text_visitRopeFxn__C
c303aaf0   xdc_runtime_knl_ISync_Interface__BASE__C
c303aaf4   ti_sdo_utils_NameServer_singleProcessor__C
c303aaf6   ti_sysbios_family_c64p_Exception_Module__id__C
c303aaf8   ti_sysbios_family_c64p_Exception_enableExternalMPC__C
c303aafa   ti_sysbios_family_c64p_Exception_enablePrint__C
c303aafc   ti_sysbios_family_c64p_Exception_useInternalBuffer__C
c303aafe   ti_sysbios_family_c64p_Hwi_Module__id__C
c303ab00   ti_sysbios_hal_Hwi_Module__id__C
c303ab02   ti_sysbios_heaps_HeapMem_Module__id__C
c303ab04   ti_sysbios_knl_Task_Module__id__C
c303ab06   ti_sysbios_knl_Task_deleteTerminatedTasks__C
c303ab08   ti_sysbios_knl_Task_initStackFlag__C
c303ab0a   ti_sysbios_timers_timer64_Timer_Module__id__C
c303ab0c   ti_sysbios_timers_timer64_Timer_startupNeeded__C
c303ab0e   xdc_runtime_Core_Module__id__C
c303ab10   xdc_runtime_Diags_setMaskEnabled__C
c303ab12   xdc_runtime_Error_Module__loggerDefined__C
c303ab14   xdc_runtime_Error_maxDepth__C
c303ab16   xdc_runtime_LoggerBuf_Module__id__C
c303ab18   xdc_runtime_LoggerBuf_filterByLevel__C
c303ab1a   xdc_runtime_Memory_Module__id__C
c303ab1c   xdc_runtime_Registry_Module__loggerDefined__C
c303ab1e   xdc_runtime_SysMin_flushAtExit__C
c303ab20   xdc_runtime_Text_charCnt__C
c303ab22   xdc_runtime_Text_isLoaded__C
c303ab24   xdc_runtime_Text_registryModsLastId__C
c303ab26   xdc_runtime_Text_unnamedModsLastId__C
c303ab28   ti_sdo_ipc_GateMP_Module_State_0_remoteSystemGates__A
c303b328   ti_sdo_ipc_GateMP_Module__root__V
c303b334   ti_sdo_ipc_GateMP_Module__state__V
c303b37c   ti_sdo_ipc_Ipc_Module__root__V
c303b380   ti_sdo_ipc_Ipc_Module__state__V
c303b38c   ti_sdo_ipc_ListMP_Module__root__V
c303b398   ti_sdo_ipc_ListMP_Module__state__V
c303b39c   ti_sdo_ipc_MessageQ_Module__root__V
c303b3a8   ti_sdo_ipc_MessageQ_Module__state__V
c303b3c8   ti_sdo_ipc_Notify_Module__root__V
c303b3d4   ti_sdo_ipc_Notify_Module__state__V
c303b3dc   ti_sdo_ipc_SharedRegion_Module__root__V
c303b3e0   ti_sdo_ipc_SharedRegion_Module__state__V
c303b3e4   ti_sdo_ipc_family_da830_InterruptDsp_Module__root__V
c303b3e6   ti_sdo_ipc_family_da830_NotifySetup_Module__root__V
c303b3e8   ti_sdo_ipc_gates_GateMPSupportNull_Module__root__V
c303b3f4   ti_sdo_ipc_gates_GatePeterson_Module__root__V
c303b400   ti_sdo_ipc_heaps_HeapBufMP_Module__root__V
c303b40c   ti_sdo_ipc_heaps_HeapBufMP_Module__state__V
c303b410   ti_sdo_ipc_heaps_HeapMemMP_Module__root__V
c303b41c   ti_sdo_ipc_heaps_HeapMemMP_Module__state__V
c303b420   ti_sdo_ipc_notifyDrivers_NotifyDriverShm_Module__root__V
c303b42c   ti_sdo_ipc_nsremote_NameServerRemoteNotify_Module__root__V
c303b438   ti_sdo_ipc_transports_TransportShm_Module__root__V
c303b444   ti_sdo_ipc_transports_TransportShmSetup_Module__root__V
c303b448   ti_sdo_ipc_transports_TransportShmSetup_Module__state__V
c303b44c   ti_sdo_utils_List_Module__root__V
c303b458   ti_sdo_utils_MultiProc_Module__root__V
c303b45a   ti_sdo_utils_MultiProc_Module__state__V
c303b460   ti_sdo_utils_NameServer_Module__root__V
c303b46c   ti_sdo_utils_NameServer_Module__state__V
c303b474   ti_sdo_utils_NameServerRemoteNull_Module__root__V
c303b480   ti_sysbios_BIOS_Module__root__V
c303b484   ti_sysbios_BIOS_Module__state__V
c303b4a4   ti_sysbios_family_c62_IntrinsicsSupport_Module__root__V
c303b4a6   ti_sysbios_family_c62_TaskSupport_Module__root__V
c303b4a8   ti_sysbios_family_c64p_Cache_Module__root__V
c303b4ac   ti_sysbios_family_c64p_Cache_Module__state__V
c303b4b0   ti_sysbios_family_c64p_Exception_Module__root__V
c303b4b4   ti_sysbios_family_c64p_Exception_Module__state__V
c303b4e4   ti_sysbios_family_c64p_Hwi_Module__root__V
c303b4f0   ti_sysbios_family_c64p_Hwi_Module__state__V
c303b558   ti_sysbios_family_c64p_primus_TimerSupport_Module__root__V
c303b55c   ti_sysbios_family_c64p_primus_TimerSupport_Module__state__V
c303b560   ti_sysbios_gates_GateAll_Module__root__V
c303b56c   ti_sysbios_gates_GateHwi_Module__root__V
c303b578   ti_sysbios_gates_GateMutex_Module__root__V
c303b584   ti_sysbios_gates_GateMutexPri_Module__root__V
c303b590   ti_sysbios_gates_GateSwi_Module__root__V
c303b59c   ti_sysbios_hal_Cache_Module__root__V
c303b5a0   ti_sysbios_hal_Hwi_Module__root__V
c303b5ac   ti_sysbios_hal_Timer_Module__root__V
c303b5b8   ti_sysbios_heaps_HeapMem_Module__root__V
c303b5c4   ti_sysbios_knl_Clock_Module__root__V
c303b5d0   ti_sysbios_knl_Clock_Module__state__V
c303b5f8   ti_sysbios_knl_Idle_Module__root__V
c303b5fa   ti_sysbios_knl_Intrinsics_Module__root__V
c303b5fc   ti_sysbios_knl_Queue_Module__root__V
c303b608   ti_sysbios_knl_Semaphore_Module__root__V
c303b614   ti_sysbios_knl_Swi_Module__root__V
c303b620   ti_sysbios_knl_Swi_Module__state__V
c303b63c   ti_sysbios_knl_Task_Module__root__V
c303b648   ti_sysbios_knl_Task_Module__state__V
c303b68c   ti_sysbios_syncs_SyncSem_Module__root__V
c303b698   ti_sysbios_timers_timer64_Timer_Module__root__V
c303b6a4   ti_sysbios_timers_timer64_Timer_Module__state__V
c303b6b8   ti_sysbios_xdcruntime_GateThreadSupport_Module__root__V
c303b6c4   xdc_runtime_Defaults_Module__root__V
c303b6c6   xdc_runtime_Error_Module__root__V
c303b6c8   xdc_runtime_Error_Module__state__V
c303b6cc   xdc_runtime_GateNull_Module__root__V
c303b6d4   xdc_runtime_LoggerBuf_Module__root__V
c303b6dc   xdc_runtime_LoggerBuf_Module__state__V
c303b6e2   xdc_runtime_Main_Module__root__V
c303b6e4   xdc_runtime_Memory_Module__state__V
c303b6e8   xdc_runtime_Registry_Module__root__V
c303b6ec   xdc_runtime_Registry_Module__state__V
c303b6f4   xdc_runtime_Startup_Module__state__V
c303b6fc   xdc_runtime_SysMin_Module__state__V
c303b708   xdc_runtime_System_Module__state__V
c303b714   xdc_runtime_Text_Module__state__V
c303b71c   xdc_runtime_knl_GateThread_Module__root__V
c303b728   __xdc__init__addr
c303b730   Cw
c303b930   xdc_runtime_Diags_dictElems
c303bad0   ti_sdo_utils_NameServer_Object__table__V
c303bbe8   ti_sdo_ipc_SharedRegion_Module_State_0_regions__A
c303bc78   ti_sysbios_knl_Swi_Module_State_0_readyQ__A
c303bcf8   ti_sysbios_knl_Task_Module_State_0_readyQ__A
c303bd78   ti_sysbios_timers_timer64_Timer_Module_State_0_device__A
c303bdd8   TSK_idle
c303bdd8   ti_sysbios_knl_Task_Object__table__V
c303be24   __errno
c303be24   errno
c303be28   ti_sysbios_timers_timer64_Timer_Object__table__V
c303be78   brev
c303beb8   ti_sysbios_gates_GateMutex_Object__table__V
c303bef8   ti_sysbios_knl_Swi_Object__table__V
c303bf28   ti_sdo_ipc_Ipc_Module_State_0_procEntry__A
c303bf50   xdc_runtime_LoggerBuf_Object__table__V
c303bf78   ti_sdo_ipc_MessageQ_Module_State_0_heaps__A
c303bf98   ti_sysbios_timers_timer64_Timer_Module_State_0_gctrl__A
c303bfb8   ti_sysbios_timers_timer64_Timer_Module_State_0_handles__A
c303bfd8   ti_sysbios_timers_timer64_Timer_Module_State_0_intFreqs__A
c303bff8   xdc_runtime_System_Module_State_0_atexitHandlers__A
c303c018   ti_sysbios_family_c64p_Hwi_Object__table__V
c303c030   ti_sysbios_gates_GateMutexPri_Object__table__V
c303c048   ti_sysbios_heaps_HeapMem_Object__table__V
c303c060   findindex
c303c070   ti_sdo_ipc_MessageQ_Module_State_0_transports__A
c303c080   ti_sysbios_gates_GateAll_Object__table__V
c303c0cc   _cleanup_ptr
c303c0d0   _dtors_ptr
c303c0d4   __TI_enable_exit_profile_output
c303c0d8   ti_sysbios_gates_GateSwi_Object__table__V
c303c0e4   _lock
c303c0e8   _unlock
c303c0f0   ti_sdo_ipc_Notify_Module_State_0_notifyHandles__A
c303c0f8   ti_sdo_ipc_transports_TransportShmSetup_Module_State_0_handles__A
c303c100   ti_sysbios_family_c64p_primus_TimerSupport_Module_State_0_suspSrc__A
c303c108   ti_sysbios_hal_Hwi_Object__table__V
c303c110   ti_sysbios_hal_Timer_Object__table__V
c303c118   ti_sdo_ipc_GateMP_Module_State_0_remoteCustom2Gates__A
c303c120   ti_sdo_ipc_Notify_Module_State_0_notifyHandles_0__A
c303c128   ti_sdo_ipc_Notify_Module_State_0_notifyHandles_1__A
c303c130   ti_sysbios_gates_GateHwi_Object__table__V
c303c138   ti_sysbios_knl_Task_Module_State_0_idleTask__A
c303c140   xdc_runtime_GateNull_Object__table__V
c303c168   _stack
c303d168   __TI_STACK_END
c303d2e8   __c_args__
c303d34c   LEDDATA
c303d34c   __TI_STATIC_BASE
c303d350   Timer3
c303d354   SecondClock
c303d358   faqueue
c303d35c   fasem
c303d360   tickets
c303d364   distance
c303d368   towards
c303d36c   FGflag
c303d370   yxstatus
c303d374   Syslink_terminateEventId
c303d378   Syslink_terminateEventLineId
c303d400   ti_sysbios_family_c64p_Hwi0
c303d400   ti_sysbios_family_c64p_Hwi_int0
c303d420   ti_sysbios_family_c64p_Hwi_int1
c303d440   ti_sysbios_family_c64p_Hwi_int2
c303d460   ti_sysbios_family_c64p_Hwi_int3
c303d480   ti_sysbios_family_c64p_Hwi_int4
c303d4a0   ti_sysbios_family_c64p_Hwi_int5
c303d4c0   ti_sysbios_family_c64p_Hwi_int6
c303d4e0   ti_sysbios_family_c64p_Hwi_int7
c303d500   ti_sysbios_family_c64p_Hwi_int8
c303d520   ti_sysbios_family_c64p_Hwi_int9
c303d540   ti_sysbios_family_c64p_Hwi_int10
c303d560   ti_sysbios_family_c64p_Hwi_int11
c303d580   ti_sysbios_family_c64p_Hwi_int12
c303d5a0   ti_sysbios_family_c64p_Hwi_int13
c303d5c0   ti_sysbios_family_c64p_Hwi_int14
c303d5e0   ti_sysbios_family_c64p_Hwi_int15
c303d600   __CIOBUF_
c303d800   _Ipc_ResetVector
c303d808   Ipc_sr0MemorySetup
ffffffff   __TI_pprof_out_hndl
ffffffff   __TI_prof_data_size
ffffffff   __TI_prof_data_start
ffffffff   __binit__
ffffffff   binit
UNDEFED    __TI_CINIT_Base
UNDEFED    __TI_CINIT_Limit
UNDEFED    __TI_Handler_Table_Base
UNDEFED    __TI_Handler_Table_Limit
UNDEFED    __TI_INITARRAY_Base
UNDEFED    __TI_INITARRAY_Limit

[1443 symbols]


DYNAMIC SYMBOLS: SORTED ALPHABETICALLY BY Name 

address    name
--------   ----
UNDEFED    
c303bdd8   TSK_idle
c303d800   _Ipc_ResetVector
c303d168   __TI_STACK_END
00001000   __TI_STACK_SIZE
c303d34c   __TI_STATIC_BASE
ffffffff   __TI_pprof_out_hndl
ffffffff   __TI_prof_data_size
ffffffff   __TI_prof_data_start
ffffffff   __binit__
c303d2e8   __c_args__
00000064   _argsize
ffffffff   binit
00000001   xdc_runtime_Startup__EXECFXN__C
00000001   xdc_runtime_Startup__RESETFXN__C

[15 symbols]


IMPORTED and EXPORTED SYMBOLS: SORTED ALPHABETICALLY BY Name 

IMPORTED SYMBOLS

name                           size      Imported from
-----------------------------  --------  -------------

[0 symbols]


EXPORTED SYMBOLS

address    name
--------   ----
c303d800   _Ipc_ResetVector
